	.section	__TEXT,__text,regular,pure_instructions
	.section	__TEXT,__literal8,8byte_literals
	.align	3
LCPI0_0:
	.quad	4591870180066957722     ## double 0.10000000000000001
LCPI0_1:
	.quad	4598175219545276416     ## double 0.25
LCPI0_2:
	.quad	4596373779694328218     ## double 0.20000000000000001
LCPI0_3:
	.quad	4594572339843380019     ## double 0.14999999999999999
	.section	__TEXT,__text,regular,pure_instructions
	.globl	_main
	.align	4, 0x90
_main:                                  ## @main
Lfunc_begin0:
	.loc	1 63 0                  ## /Users/Vincenzo/Desktop/COMAP_EBOLA/COMAP_EBOLA/main.cpp:63:0
	.cfi_startproc
	.cfi_personality 155, ___gxx_personality_v0
Leh_func_begin0:
	.cfi_lsda 16, Lexception0
## BB#0:
	pushq	%rbp
Ltmp29:
	.cfi_def_cfa_offset 16
Ltmp30:
	.cfi_offset %rbp, -16
	movq	%rsp, %rbp
Ltmp31:
	.cfi_def_cfa_register %rbp
	subq	$35808, %rsp            ## imm = 0x8BE0
	leaq	-35056(%rbp), %rax
	movq	___stack_chk_guard@GOTPCREL(%rip), %rcx
	movq	(%rcx), %rcx
	movq	%rcx, -8(%rbp)
	movl	$0, -35516(%rbp)
	movl	%edi, -35520(%rbp)
	movq	%rsi, -35528(%rbp)
Ltmp32:
	##DEBUG_VALUE: main:boke <- RAX
	.loc	1 67 0 prologue_end     ## /Users/Vincenzo/Desktop/COMAP_EBOLA/COMAP_EBOLA/main.cpp:67:0
	movq	%rax, %rcx
	addq	$35040, %rcx            ## imm = 0x88E0
	movq	%rcx, -35640(%rbp)      ## 8-byte Spill
	movq	%rax, -35648(%rbp)      ## 8-byte Spill
Ltmp33:
LBB0_1:                                 ## =>This Inner Loop Header: Depth=1
	movq	-35648(%rbp), %rax      ## 8-byte Reload
	movq	%rax, %rdi
	movq	%rax, -35656(%rbp)      ## 8-byte Spill
	callq	__ZN4cityC1Ev
	movq	-35656(%rbp), %rax      ## 8-byte Reload
	addq	$96, %rax
	movq	-35640(%rbp), %rdi      ## 8-byte Reload
	cmpq	%rdi, %rax
	movq	%rax, -35648(%rbp)      ## 8-byte Spill
	jne	LBB0_1
## BB#2:
	movsd	LCPI0_0(%rip), %xmm0
	leaq	-35328(%rbp), %rax
	leaq	-35352(%rbp), %rcx
	leaq	-35400(%rbp), %rdx
	leaq	-35424(%rbp), %rsi
	leaq	-35600(%rbp), %rdi
Ltmp34:
	##DEBUG_VALUE: main:temp <- RDI
	movq	%rdi, -35512(%rbp)
	movq	-35512(%rbp), %rdi
Ltmp35:
	movq	%rdi, -35504(%rbp)
	movq	-35504(%rbp), %rdi
	movq	%rdi, -35496(%rbp)
	movq	-35496(%rbp), %rdi
	movq	%rdi, -35488(%rbp)
	movq	-35488(%rbp), %rdi
	movq	%rdi, -35464(%rbp)
	movq	-35464(%rbp), %rdi
	movq	%rdi, -35456(%rbp)
	movq	-35456(%rbp), %r8
	movq	%r8, -35448(%rbp)
	movq	-35448(%rbp), %r8
	.loc	9 335 0                 ## /Applications/Xcode.app/Contents/Developer/Toolchains/XcodeDefault.xctoolchain/usr/bin/../include/c++/v1/__split_buffer:335:0
Ltmp36:
	movq	$0, (%r8)
	movq	$0, 8(%r8)
	movq	$0, 16(%r8)
	addq	$24, %r8
	movq	%r8, -35432(%rbp)
	movq	$0, -35440(%rbp)
	movq	-35432(%rbp), %r8
	.loc	4 2313 0                ## /Applications/Xcode.app/Contents/Developer/Toolchains/XcodeDefault.xctoolchain/usr/bin/../include/c++/v1/memory:2313:0
Ltmp37:
	movq	-35440(%rbp), %r9
	movq	%r8, -35416(%rbp)
	movq	%r9, -35424(%rbp)
Ltmp38:
	##DEBUG_VALUE: __compressed_pair:__t1 <- RSI
	movq	-35416(%rbp), %r8
	movq	%rsi, -35408(%rbp)
	.loc	7 1549 0                ## /Applications/Xcode.app/Contents/Developer/Toolchains/XcodeDefault.xctoolchain/usr/bin/../include/c++/v1/type_traits:1549:0
Ltmp39:
	movq	-35408(%rbp), %rsi
Ltmp40:
	.loc	4 2313 16               ## /Applications/Xcode.app/Contents/Developer/Toolchains/XcodeDefault.xctoolchain/usr/bin/../include/c++/v1/memory:2313:16
	movq	(%rsi), %rsi
	movq	%r8, -35392(%rbp)
	movq	%rsi, -35400(%rbp)
Ltmp41:
	##DEBUG_VALUE: __libcpp_compressed_pair_imp:__t1 <- RDX
	movq	-35392(%rbp), %rsi
	.loc	4 2134 0                ## /Applications/Xcode.app/Contents/Developer/Toolchains/XcodeDefault.xctoolchain/usr/bin/../include/c++/v1/memory:2134:0
Ltmp42:
	movq	%rsi, %r8
	movq	%r8, -35384(%rbp)
	movq	%rdx, -35376(%rbp)
	.loc	7 1549 0                ## /Applications/Xcode.app/Contents/Developer/Toolchains/XcodeDefault.xctoolchain/usr/bin/../include/c++/v1/type_traits:1549:0
Ltmp43:
	movq	-35376(%rbp), %rdx
Ltmp44:
	.loc	4 2134 20               ## /Applications/Xcode.app/Contents/Developer/Toolchains/XcodeDefault.xctoolchain/usr/bin/../include/c++/v1/memory:2134:20
	movq	(%rdx), %rdx
	movq	%rdx, (%rsi)
Ltmp45:
	.loc	3 1094 0                ## /Applications/Xcode.app/Contents/Developer/Toolchains/XcodeDefault.xctoolchain/usr/bin/../include/c++/v1/deque:1094:0
	movq	$0, 32(%rdi)
	addq	$40, %rdi
	movq	%rdi, -35360(%rbp)
	movq	$0, -35368(%rbp)
	movq	-35360(%rbp), %rdx
	.loc	4 2313 0                ## /Applications/Xcode.app/Contents/Developer/Toolchains/XcodeDefault.xctoolchain/usr/bin/../include/c++/v1/memory:2313:0
Ltmp46:
	movq	-35368(%rbp), %rsi
	movq	%rdx, -35344(%rbp)
	movq	%rsi, -35352(%rbp)
Ltmp47:
	##DEBUG_VALUE: __compressed_pair:__t1 <- RCX
	movq	-35344(%rbp), %rdx
	movq	%rcx, -35336(%rbp)
	.loc	7 1549 0                ## /Applications/Xcode.app/Contents/Developer/Toolchains/XcodeDefault.xctoolchain/usr/bin/../include/c++/v1/type_traits:1549:0
Ltmp48:
	movq	-35336(%rbp), %rcx
Ltmp49:
	.loc	4 2313 16               ## /Applications/Xcode.app/Contents/Developer/Toolchains/XcodeDefault.xctoolchain/usr/bin/../include/c++/v1/memory:2313:16
	movq	(%rcx), %rcx
	movq	%rdx, -35320(%rbp)
	movq	%rcx, -35328(%rbp)
Ltmp50:
	##DEBUG_VALUE: __libcpp_compressed_pair_imp:__t1 <- RAX
	movq	-35320(%rbp), %rcx
	.loc	4 2134 0                ## /Applications/Xcode.app/Contents/Developer/Toolchains/XcodeDefault.xctoolchain/usr/bin/../include/c++/v1/memory:2134:0
Ltmp51:
	movq	%rcx, %rdx
	movq	%rdx, -35312(%rbp)
	movq	%rax, -35304(%rbp)
	.loc	7 1549 0                ## /Applications/Xcode.app/Contents/Developer/Toolchains/XcodeDefault.xctoolchain/usr/bin/../include/c++/v1/type_traits:1549:0
Ltmp52:
	movq	-35304(%rbp), %rax
Ltmp53:
	.loc	4 2134 20               ## /Applications/Xcode.app/Contents/Developer/Toolchains/XcodeDefault.xctoolchain/usr/bin/../include/c++/v1/memory:2134:20
	movq	(%rax), %rax
	movq	%rax, (%rcx)
Ltmp54:
	.loc	1 72 0                  ## /Users/Vincenzo/Desktop/COMAP_EBOLA/COMAP_EBOLA/main.cpp:72:0
	movl	$1073741823, -35056(%rbp) ## imm = 0x3FFFFFFF
	.loc	1 73 0                  ## /Users/Vincenzo/Desktop/COMAP_EBOLA/COMAP_EBOLA/main.cpp:73:0
	cvtsi2sdl	-35056(%rbp), %xmm1
	mulsd	%xmm1, %xmm0
	cvttsd2si	%xmm0, %r10d
	movl	%r10d, -35052(%rbp)
	.loc	1 74 0                  ## /Users/Vincenzo/Desktop/COMAP_EBOLA/COMAP_EBOLA/main.cpp:74:0
	movl	$0, -34976(%rbp)
	movl	$0, -34972(%rbp)
	.loc	1 75 0                  ## /Users/Vincenzo/Desktop/COMAP_EBOLA/COMAP_EBOLA/main.cpp:75:0
	movl	-35056(%rbp), %r10d
	addl	-35052(%rbp), %r10d
	addl	-34972(%rbp), %r10d
	addl	-34976(%rbp), %r10d
	movl	%r10d, -34968(%rbp)
	.loc	1 78 0                  ## /Users/Vincenzo/Desktop/COMAP_EBOLA/COMAP_EBOLA/main.cpp:78:0
Ltmp55:
	movl	$0, -35604(%rbp)
LBB0_3:                                 ## =>This Inner Loop Header: Depth=1
	cmpl	$7, -35604(%rbp)
	jge	LBB0_9
## BB#4:                                ##   in Loop: Header=BB0_3 Depth=1
	.loc	1 79 0                  ## /Users/Vincenzo/Desktop/COMAP_EBOLA/COMAP_EBOLA/main.cpp:79:0
Ltmp56:
	cvtsi2sdl	-35052(%rbp), %xmm0
	movsd	LCPI0_1(%rip), %xmm1
	mulsd	%xmm1, %xmm0
	cvtsi2sdl	-34968(%rbp), %xmm1
	divsd	%xmm1, %xmm0
	cvtsi2sdl	-35056(%rbp), %xmm1
	mulsd	%xmm1, %xmm0
	cvttsd2si	%xmm0, %eax
	movl	%eax, -35540(%rbp)
	.loc	1 80 0                  ## /Users/Vincenzo/Desktop/COMAP_EBOLA/COMAP_EBOLA/main.cpp:80:0
	leaq	-35048(%rbp), %rcx
	movq	%rcx, -35288(%rbp)
	leaq	-35540(%rbp), %rcx
	movq	%rcx, -35296(%rbp)
	movq	-35288(%rbp), %rdi
Ltmp24:
	movq	%rcx, %rsi
	callq	__ZNSt3__15dequeIiNS_9allocatorIiEEE9push_backERKi
Ltmp25:
	jmp	LBB0_5
LBB0_5:                                 ## %_ZNSt3__15queueIiNS_5dequeIiNS_9allocatorIiEEEEE4pushERKi.exit
                                        ##   in Loop: Header=BB0_3 Depth=1
	.loc	12 286 0                ## /Applications/Xcode.app/Contents/Developer/Toolchains/XcodeDefault.xctoolchain/usr/bin/../include/c++/v1/queue:286:0
Ltmp57:
	jmp	LBB0_6
Ltmp58:
LBB0_6:                                 ##   in Loop: Header=BB0_3 Depth=1
	.loc	1 81 0                  ## /Users/Vincenzo/Desktop/COMAP_EBOLA/COMAP_EBOLA/main.cpp:81:0
	movl	-35540(%rbp), %eax
	movl	-35056(%rbp), %ecx
	subl	%eax, %ecx
	movl	%ecx, -35056(%rbp)
Ltmp59:
## BB#7:                                ##   in Loop: Header=BB0_3 Depth=1
	.loc	1 78 0                  ## /Users/Vincenzo/Desktop/COMAP_EBOLA/COMAP_EBOLA/main.cpp:78:0
	movl	-35604(%rbp), %eax
	addl	$1, %eax
	movl	%eax, -35604(%rbp)
	jmp	LBB0_3
LBB0_8:
Ltmp26:
	leaq	-35600(%rbp), %rdi
	.loc	1 159 0                 ## /Users/Vincenzo/Desktop/COMAP_EBOLA/COMAP_EBOLA/main.cpp:159:0
Ltmp60:
	movl	%edx, %ecx
	movq	%rax, -35616(%rbp)
	movl	%ecx, -35620(%rbp)
Ltmp61:
	.loc	1 159 0                 ## /Users/Vincenzo/Desktop/COMAP_EBOLA/COMAP_EBOLA/main.cpp:159:0
	callq	__ZNSt3__15queueIiNS_5dequeIiNS_9allocatorIiEEEEED1Ev
	leaq	-35056(%rbp), %rax
	movq	%rax, %rdx
	addq	$35040, %rdx            ## imm = 0x88E0
	movq	%rax, -35664(%rbp)      ## 8-byte Spill
	movq	%rdx, -35672(%rbp)      ## 8-byte Spill
	jmp	LBB0_46
LBB0_9:
Ltmp62:
	##DEBUG_VALUE: main:boke0 <- [RBP+-35624]
	.loc	1 84 0                  ## /Users/Vincenzo/Desktop/COMAP_EBOLA/COMAP_EBOLA/main.cpp:84:0
	movl	-34968(%rbp), %eax
	movl	%eax, -35624(%rbp)
	.loc	1 86 0                  ## /Users/Vincenzo/Desktop/COMAP_EBOLA/COMAP_EBOLA/main.cpp:86:0
	movl	-35056(%rbp), %edx
	movl	-35052(%rbp), %ecx
Ltmp0:
	leaq	L_.str(%rip), %rdi
	xorl	%eax, %eax
	movb	%al, %sil
	movb	%sil, -35673(%rbp)      ## 1-byte Spill
	movl	%eax, %esi
	movb	-35673(%rbp), %al       ## 1-byte Reload
	callq	_printf
Ltmp1:
	movl	%eax, -35680(%rbp)      ## 4-byte Spill
	jmp	LBB0_10
Ltmp63:
LBB0_10:
	.loc	1 87 0                  ## /Users/Vincenzo/Desktop/COMAP_EBOLA/COMAP_EBOLA/main.cpp:87:0
	leaq	-35048(%rbp), %rax
	leaq	-35600(%rbp), %rcx
	movq	%rcx, -35272(%rbp)
	movq	%rax, -35280(%rbp)
	movq	-35272(%rbp), %rdi
Ltmp2:
	movq	%rax, %rsi
	callq	__ZNSt3__15dequeIiNS_9allocatorIiEEEaSERKS3_
Ltmp3:
	movq	%rax, -35688(%rbp)      ## 8-byte Spill
	jmp	LBB0_11
LBB0_11:                                ## %_ZNSt3__15queueIiNS_5dequeIiNS_9allocatorIiEEEEEaSERKS5_.exit
	.loc	12 222 0                ## /Applications/Xcode.app/Contents/Developer/Toolchains/XcodeDefault.xctoolchain/usr/bin/../include/c++/v1/queue:222:0
Ltmp64:
	jmp	LBB0_12
Ltmp65:
LBB0_12:
	.loc	1 94 0                  ## /Users/Vincenzo/Desktop/COMAP_EBOLA/COMAP_EBOLA/main.cpp:94:0
	movl	-35056(%rbp), %eax
	addl	-35052(%rbp), %eax
	addl	-34976(%rbp), %eax
	movl	%eax, -35536(%rbp)
LBB0_13:                                ## =>This Inner Loop Header: Depth=1
	leaq	-35600(%rbp), %rax
	movq	%rax, -35264(%rbp)
	movq	-35264(%rbp), %rax
	movq	%rax, -35256(%rbp)
	movq	-35256(%rbp), %rax
	movq	%rax, -35248(%rbp)
	movq	-35248(%rbp), %rax
	.loc	3 949 0                 ## /Applications/Xcode.app/Contents/Developer/Toolchains/XcodeDefault.xctoolchain/usr/bin/../include/c++/v1/deque:949:0
Ltmp66:
	addq	$40, %rax
	movq	%rax, -35240(%rbp)
	movq	-35240(%rbp), %rax
	movq	%rax, -35232(%rbp)
	movq	-35232(%rbp), %rax
Ltmp67:
	.loc	3 1307 0                ## /Applications/Xcode.app/Contents/Developer/Toolchains/XcodeDefault.xctoolchain/usr/bin/../include/c++/v1/deque:1307:0
	cmpq	$0, (%rax)
	sete	%cl
	movb	%cl, -35689(%rbp)       ## 1-byte Spill
Ltmp68:
## BB#14:                               ##   in Loop: Header=BB0_13 Depth=1
	.loc	1 95 0                  ## /Users/Vincenzo/Desktop/COMAP_EBOLA/COMAP_EBOLA/main.cpp:95:0
	movb	-35689(%rbp), %al       ## 1-byte Reload
	xorb	$1, %al
	testb	$1, %al
	jne	LBB0_15
	jmp	LBB0_19
LBB0_15:                                ##   in Loop: Header=BB0_13 Depth=1
	leaq	-35600(%rbp), %rax
	movq	%rax, -35224(%rbp)
	movq	-35224(%rbp), %rax
	movq	%rax, -35216(%rbp)
	movq	-35216(%rbp), %rax
	.loc	3 1733 0                ## /Applications/Xcode.app/Contents/Developer/Toolchains/XcodeDefault.xctoolchain/usr/bin/../include/c++/v1/deque:1733:0
Ltmp69:
	movq	%rax, %rcx
	movq	%rcx, -35208(%rbp)
	movq	-35208(%rbp), %rcx
	.loc	9 76 0                  ## /Applications/Xcode.app/Contents/Developer/Toolchains/XcodeDefault.xctoolchain/usr/bin/../include/c++/v1/__split_buffer:76:0
Ltmp70:
	movq	8(%rcx), %rcx
Ltmp71:
	.loc	3 1733 0                ## /Applications/Xcode.app/Contents/Developer/Toolchains/XcodeDefault.xctoolchain/usr/bin/../include/c++/v1/deque:1733:0
	movq	32(%rax), %rdx
	shrq	$10, %rdx
	movq	(%rcx,%rdx,8), %rcx
	movq	32(%rax), %rax
	andq	$1023, %rax             ## imm = 0x3FF
	shlq	$2, %rax
	addq	%rax, %rcx
	movq	%rcx, -35704(%rbp)      ## 8-byte Spill
Ltmp72:
## BB#16:                               ##   in Loop: Header=BB0_13 Depth=1
	.loc	1 96 0                  ## /Users/Vincenzo/Desktop/COMAP_EBOLA/COMAP_EBOLA/main.cpp:96:0
	movq	-35704(%rbp), %rax      ## 8-byte Reload
	movl	(%rax), %ecx
	movl	-35536(%rbp), %edx
	addl	%ecx, %edx
	movl	%edx, -35536(%rbp)
	leaq	-35600(%rbp), %rsi
	movq	%rsi, -35200(%rbp)
Ltmp22:
	movq	%rsi, %rdi
	callq	__ZNSt3__15dequeIiNS_9allocatorIiEEE9pop_frontEv
Ltmp23:
	jmp	LBB0_17
LBB0_17:                                ## %_ZNSt3__15queueIiNS_5dequeIiNS_9allocatorIiEEEEE3popEv.exit
                                        ##   in Loop: Header=BB0_13 Depth=1
	.loc	12 298 0                ## /Applications/Xcode.app/Contents/Developer/Toolchains/XcodeDefault.xctoolchain/usr/bin/../include/c++/v1/queue:298:0
Ltmp73:
	jmp	LBB0_18
Ltmp74:
LBB0_18:                                ##   in Loop: Header=BB0_13 Depth=1
	.loc	1 98 0                  ## /Users/Vincenzo/Desktop/COMAP_EBOLA/COMAP_EBOLA/main.cpp:98:0
	jmp	LBB0_13
Ltmp75:
LBB0_19:
	.loc	1 101 0                 ## /Users/Vincenzo/Desktop/COMAP_EBOLA/COMAP_EBOLA/main.cpp:101:0
	movl	-34976(%rbp), %esi
	movl	-34972(%rbp), %edx
	movl	-34968(%rbp), %ecx
	movl	-35536(%rbp), %r8d
Ltmp4:
	leaq	L_.str1(%rip), %rdi
	xorl	%eax, %eax
	movb	%al, %r9b
	movb	%r9b, %al
	callq	_printf
Ltmp5:
	movl	%eax, -35708(%rbp)      ## 4-byte Spill
	jmp	LBB0_20
LBB0_20:
	.loc	1 105 0                 ## /Users/Vincenzo/Desktop/COMAP_EBOLA/COMAP_EBOLA/main.cpp:105:0
Ltmp76:
	movl	$1, -35628(%rbp)
LBB0_21:                                ## =>This Loop Header: Depth=1
                                        ##     Child Loop BB0_32 Depth 2
	cmpl	$365, -35628(%rbp)      ## imm = 0x16D
	jge	LBB0_42
## BB#22:                               ##   in Loop: Header=BB0_21 Depth=1
	.loc	1 107 0                 ## /Users/Vincenzo/Desktop/COMAP_EBOLA/COMAP_EBOLA/main.cpp:107:0
Ltmp77:
	movslq	-35628(%rbp), %rax
	movl	%eax, %ecx
	leaq	(%rax,%rax,2), %rax
	shlq	$5, %rax
	leaq	-35056(%rbp,%rax), %rdi
	decl	%ecx
	movslq	%ecx, %rax
	leaq	(%rax,%rax,2), %rax
	shlq	$5, %rax
	leaq	-35056(%rbp,%rax), %rsi
Ltmp6:
	callq	__ZN4cityaSERKS_
Ltmp7:
	movq	%rax, -35720(%rbp)      ## 8-byte Spill
	jmp	LBB0_23
LBB0_23:                                ##   in Loop: Header=BB0_21 Depth=1
	.loc	1 110 0                 ## /Users/Vincenzo/Desktop/COMAP_EBOLA/COMAP_EBOLA/main.cpp:110:0
	movslq	-35628(%rbp), %rax
	leaq	(%rax,%rax,2), %rax
	shlq	$5, %rax
	cvtsi2sdl	-35052(%rbp,%rax), %xmm0
	movsd	LCPI0_1(%rip), %xmm1
	mulsd	%xmm1, %xmm0
	cvtsi2sdl	-34968(%rbp,%rax), %xmm1
	divsd	%xmm1, %xmm0
	cvtsi2sdl	-35056(%rbp,%rax), %xmm1
	mulsd	%xmm1, %xmm0
	cvttsd2si	%xmm0, %ecx
	movl	%ecx, -35540(%rbp)
	.loc	1 112 0                 ## /Users/Vincenzo/Desktop/COMAP_EBOLA/COMAP_EBOLA/main.cpp:112:0
	movslq	-35628(%rbp), %rax
	leaq	(%rax,%rax,2), %rax
	shlq	$5, %rax
	leaq	-35048(%rbp,%rax), %rax
	movq	%rax, -35184(%rbp)
	leaq	-35540(%rbp), %rax
	movq	%rax, -35192(%rbp)
	movq	-35184(%rbp), %rdi
Ltmp8:
	movq	%rax, %rsi
	callq	__ZNSt3__15dequeIiNS_9allocatorIiEEE9push_backERKi
Ltmp9:
	jmp	LBB0_24
LBB0_24:                                ## %_ZNSt3__15queueIiNS_5dequeIiNS_9allocatorIiEEEEE4pushERKi.exit2
                                        ##   in Loop: Header=BB0_21 Depth=1
	.loc	12 286 0                ## /Applications/Xcode.app/Contents/Developer/Toolchains/XcodeDefault.xctoolchain/usr/bin/../include/c++/v1/queue:286:0
Ltmp78:
	jmp	LBB0_25
Ltmp79:
LBB0_25:                                ##   in Loop: Header=BB0_21 Depth=1
	leaq	-35056(%rbp), %rax
	.loc	1 114 0                 ## /Users/Vincenzo/Desktop/COMAP_EBOLA/COMAP_EBOLA/main.cpp:114:0
	movl	-35540(%rbp), %ecx
	movslq	-35628(%rbp), %rdx
	imulq	$96, %rdx, %rdx
	movq	%rax, %rsi
	addq	%rdx, %rsi
	movl	(%rsi), %edi
	subl	%ecx, %edi
	movl	%edi, (%rsi)
	.loc	1 118 0                 ## /Users/Vincenzo/Desktop/COMAP_EBOLA/COMAP_EBOLA/main.cpp:118:0
	movslq	-35628(%rbp), %rdx
	imulq	$96, %rdx, %rdx
	addq	%rdx, %rax
	addq	$8, %rax
	movq	%rax, -35176(%rbp)
	movq	-35176(%rbp), %rax
	movq	%rax, -35168(%rbp)
	movq	-35168(%rbp), %rax
	.loc	3 1733 0                ## /Applications/Xcode.app/Contents/Developer/Toolchains/XcodeDefault.xctoolchain/usr/bin/../include/c++/v1/deque:1733:0
Ltmp80:
	movq	%rax, %rdx
	movq	%rdx, -35160(%rbp)
	movq	-35160(%rbp), %rdx
	.loc	9 76 0                  ## /Applications/Xcode.app/Contents/Developer/Toolchains/XcodeDefault.xctoolchain/usr/bin/../include/c++/v1/__split_buffer:76:0
Ltmp81:
	movq	8(%rdx), %rdx
Ltmp82:
	.loc	3 1733 0                ## /Applications/Xcode.app/Contents/Developer/Toolchains/XcodeDefault.xctoolchain/usr/bin/../include/c++/v1/deque:1733:0
	movq	32(%rax), %rsi
	shrq	$10, %rsi
	movq	(%rdx,%rsi,8), %rdx
	movq	32(%rax), %rax
	andq	$1023, %rax             ## imm = 0x3FF
	shlq	$2, %rax
	addq	%rax, %rdx
	movq	%rdx, -35728(%rbp)      ## 8-byte Spill
Ltmp83:
## BB#26:                               ##   in Loop: Header=BB0_21 Depth=1
	.loc	1 118 0                 ## /Users/Vincenzo/Desktop/COMAP_EBOLA/COMAP_EBOLA/main.cpp:118:0
	movq	-35728(%rbp), %rax      ## 8-byte Reload
	movl	(%rax), %ecx
	movl	%ecx, -35532(%rbp)
	.loc	1 119 0                 ## /Users/Vincenzo/Desktop/COMAP_EBOLA/COMAP_EBOLA/main.cpp:119:0
	movslq	-35628(%rbp), %rdx
	leaq	(%rdx,%rdx,2), %rdx
	shlq	$5, %rdx
	leaq	-35048(%rbp,%rdx), %rdx
	movq	%rdx, -35144(%rbp)
Ltmp10:
	movq	%rdx, %rdi
	callq	__ZNSt3__15dequeIiNS_9allocatorIiEEE9pop_frontEv
Ltmp11:
	jmp	LBB0_27
LBB0_27:                                ## %_ZNSt3__15queueIiNS_5dequeIiNS_9allocatorIiEEEEE3popEv.exit4
                                        ##   in Loop: Header=BB0_21 Depth=1
	.loc	12 298 0                ## /Applications/Xcode.app/Contents/Developer/Toolchains/XcodeDefault.xctoolchain/usr/bin/../include/c++/v1/queue:298:0
Ltmp84:
	jmp	LBB0_28
Ltmp85:
LBB0_28:                                ##   in Loop: Header=BB0_21 Depth=1
	.loc	1 121 0                 ## /Users/Vincenzo/Desktop/COMAP_EBOLA/COMAP_EBOLA/main.cpp:121:0
	movslq	-35628(%rbp), %rax
	leaq	(%rax,%rax,2), %rax
	shlq	$5, %rax
	cvtsi2sdl	-35052(%rbp,%rax), %xmm0
	movsd	LCPI0_2(%rip), %xmm1
	mulsd	%xmm1, %xmm0
	callq	_ceil
	cvttsd2si	%xmm0, %ecx
	movl	%ecx, -35544(%rbp)
	.loc	1 122 0                 ## /Users/Vincenzo/Desktop/COMAP_EBOLA/COMAP_EBOLA/main.cpp:122:0
	movslq	-35628(%rbp), %rax
	leaq	(%rax,%rax,2), %rax
	shlq	$5, %rax
	cvtsi2sdl	-35052(%rbp,%rax), %xmm0
	movsd	LCPI0_3(%rip), %xmm1
	mulsd	%xmm1, %xmm0
	cvttsd2si	%xmm0, %ecx
	movl	%ecx, -35548(%rbp)
	.loc	1 125 0                 ## /Users/Vincenzo/Desktop/COMAP_EBOLA/COMAP_EBOLA/main.cpp:125:0
	movl	-35544(%rbp), %ecx
	movslq	-35628(%rbp), %rax
	leaq	(%rax,%rax,2), %rax
	shlq	$5, %rax
	movl	-34972(%rbp,%rax), %edx
	addl	%ecx, %edx
	movl	%edx, -34972(%rbp,%rax)
	.loc	1 128 0                 ## /Users/Vincenzo/Desktop/COMAP_EBOLA/COMAP_EBOLA/main.cpp:128:0
	movl	-35548(%rbp), %ecx
	movslq	-35628(%rbp), %rax
	leaq	(%rax,%rax,2), %rax
	shlq	$5, %rax
	movl	-34976(%rbp,%rax), %edx
	addl	%ecx, %edx
	movl	%edx, -34976(%rbp,%rax)
	.loc	1 131 0                 ## /Users/Vincenzo/Desktop/COMAP_EBOLA/COMAP_EBOLA/main.cpp:131:0
	movl	-35532(%rbp), %ecx
	movl	-35548(%rbp), %edx
	movl	-35544(%rbp), %esi
	addl	%esi, %edx
	subl	%edx, %ecx
	movslq	-35628(%rbp), %rax
	leaq	(%rax,%rax,2), %rax
	shlq	$5, %rax
	movl	-35052(%rbp,%rax), %edx
	addl	%ecx, %edx
	movl	%edx, -35052(%rbp,%rax)
	.loc	1 134 0                 ## /Users/Vincenzo/Desktop/COMAP_EBOLA/COMAP_EBOLA/main.cpp:134:0
	movl	-35544(%rbp), %ecx
	movslq	-35628(%rbp), %rax
	leaq	(%rax,%rax,2), %rax
	shlq	$5, %rax
	movl	-34968(%rbp,%rax), %edx
	subl	%ecx, %edx
	movl	%edx, -34968(%rbp,%rax)
	.loc	1 137 0                 ## /Users/Vincenzo/Desktop/COMAP_EBOLA/COMAP_EBOLA/main.cpp:137:0
	movslq	-35628(%rbp), %rax
	movl	%eax, %ecx
	leaq	(%rax,%rax,2), %rax
	shlq	$5, %rax
	movl	-35056(%rbp,%rax), %edx
	movl	-35052(%rbp,%rax), %esi
Ltmp12:
	leaq	L_.str2(%rip), %rdi
	xorl	%r8d, %r8d
	movb	%r8b, %r9b
	movl	%esi, -35732(%rbp)      ## 4-byte Spill
	movl	%ecx, %esi
	movl	-35732(%rbp), %ecx      ## 4-byte Reload
	movb	%r9b, %al
	callq	_printf
Ltmp13:
	movl	%eax, -35736(%rbp)      ## 4-byte Spill
	jmp	LBB0_29
LBB0_29:                                ##   in Loop: Header=BB0_21 Depth=1
	.loc	1 138 0                 ## /Users/Vincenzo/Desktop/COMAP_EBOLA/COMAP_EBOLA/main.cpp:138:0
	movslq	-35628(%rbp), %rax
	leaq	(%rax,%rax,2), %rax
	shlq	$5, %rax
	leaq	-35048(%rbp,%rax), %rax
	leaq	-35600(%rbp), %rcx
	movq	%rcx, -35128(%rbp)
	movq	%rax, -35136(%rbp)
	movq	-35128(%rbp), %rdi
Ltmp14:
	movq	%rax, %rsi
	callq	__ZNSt3__15dequeIiNS_9allocatorIiEEEaSERKS3_
Ltmp15:
	movq	%rax, -35744(%rbp)      ## 8-byte Spill
	jmp	LBB0_30
LBB0_30:                                ## %_ZNSt3__15queueIiNS_5dequeIiNS_9allocatorIiEEEEEaSERKS5_.exit5
                                        ##   in Loop: Header=BB0_21 Depth=1
	.loc	12 222 0                ## /Applications/Xcode.app/Contents/Developer/Toolchains/XcodeDefault.xctoolchain/usr/bin/../include/c++/v1/queue:222:0
Ltmp86:
	jmp	LBB0_31
Ltmp87:
LBB0_31:                                ##   in Loop: Header=BB0_21 Depth=1
	.loc	1 140 0                 ## /Users/Vincenzo/Desktop/COMAP_EBOLA/COMAP_EBOLA/main.cpp:140:0
	jmp	LBB0_32
LBB0_32:                                ##   Parent Loop BB0_21 Depth=1
                                        ## =>  This Inner Loop Header: Depth=2
	leaq	-35600(%rbp), %rax
	movq	%rax, -35120(%rbp)
	movq	-35120(%rbp), %rax
	movq	%rax, -35112(%rbp)
	movq	-35112(%rbp), %rax
	movq	%rax, -35104(%rbp)
	movq	-35104(%rbp), %rax
	.loc	3 949 0                 ## /Applications/Xcode.app/Contents/Developer/Toolchains/XcodeDefault.xctoolchain/usr/bin/../include/c++/v1/deque:949:0
Ltmp88:
	addq	$40, %rax
	movq	%rax, -35096(%rbp)
	movq	-35096(%rbp), %rax
	movq	%rax, -35088(%rbp)
	movq	-35088(%rbp), %rax
Ltmp89:
	.loc	3 1307 0                ## /Applications/Xcode.app/Contents/Developer/Toolchains/XcodeDefault.xctoolchain/usr/bin/../include/c++/v1/deque:1307:0
	cmpq	$0, (%rax)
	sete	%cl
	movb	%cl, -35745(%rbp)       ## 1-byte Spill
Ltmp90:
## BB#33:                               ##   in Loop: Header=BB0_32 Depth=2
	.loc	1 140 0                 ## /Users/Vincenzo/Desktop/COMAP_EBOLA/COMAP_EBOLA/main.cpp:140:0
	movb	-35745(%rbp), %al       ## 1-byte Reload
	xorb	$1, %al
	testb	$1, %al
	jne	LBB0_34
	jmp	LBB0_39
LBB0_34:                                ##   in Loop: Header=BB0_32 Depth=2
	leaq	-35600(%rbp), %rax
	movq	%rax, -35080(%rbp)
	movq	-35080(%rbp), %rax
	movq	%rax, -35072(%rbp)
	movq	-35072(%rbp), %rax
	.loc	3 1733 0                ## /Applications/Xcode.app/Contents/Developer/Toolchains/XcodeDefault.xctoolchain/usr/bin/../include/c++/v1/deque:1733:0
Ltmp91:
	movq	%rax, %rcx
	movq	%rcx, -35064(%rbp)
	movq	-35064(%rbp), %rcx
	.loc	9 76 0                  ## /Applications/Xcode.app/Contents/Developer/Toolchains/XcodeDefault.xctoolchain/usr/bin/../include/c++/v1/__split_buffer:76:0
Ltmp92:
	movq	8(%rcx), %rcx
Ltmp93:
	.loc	3 1733 0                ## /Applications/Xcode.app/Contents/Developer/Toolchains/XcodeDefault.xctoolchain/usr/bin/../include/c++/v1/deque:1733:0
	movq	32(%rax), %rdx
	shrq	$10, %rdx
	movq	(%rcx,%rdx,8), %rcx
	movq	32(%rax), %rax
	andq	$1023, %rax             ## imm = 0x3FF
	shlq	$2, %rax
	addq	%rax, %rcx
	movq	%rcx, -35760(%rbp)      ## 8-byte Spill
Ltmp94:
## BB#35:                               ##   in Loop: Header=BB0_32 Depth=2
	.loc	1 141 0                 ## /Users/Vincenzo/Desktop/COMAP_EBOLA/COMAP_EBOLA/main.cpp:141:0
	movq	-35760(%rbp), %rax      ## 8-byte Reload
	movl	(%rax), %esi
Ltmp18:
	leaq	L_.str3(%rip), %rdi
	xorl	%ecx, %ecx
	movb	%cl, %dl
	movb	%dl, %al
	callq	_printf
Ltmp19:
	movl	%eax, -35764(%rbp)      ## 4-byte Spill
	jmp	LBB0_36
LBB0_36:                                ##   in Loop: Header=BB0_32 Depth=2
	leaq	-35600(%rbp), %rax
	movq	%rax, -35152(%rbp)
Ltmp20:
	movq	%rax, %rdi
	callq	__ZNSt3__15dequeIiNS_9allocatorIiEEE9pop_frontEv
Ltmp21:
	jmp	LBB0_37
LBB0_37:                                ## %_ZNSt3__15queueIiNS_5dequeIiNS_9allocatorIiEEEEE3popEv.exit3
                                        ##   in Loop: Header=BB0_32 Depth=2
	.loc	12 298 0                ## /Applications/Xcode.app/Contents/Developer/Toolchains/XcodeDefault.xctoolchain/usr/bin/../include/c++/v1/queue:298:0
Ltmp95:
	jmp	LBB0_38
Ltmp96:
LBB0_38:                                ##   in Loop: Header=BB0_32 Depth=2
	.loc	1 143 0                 ## /Users/Vincenzo/Desktop/COMAP_EBOLA/COMAP_EBOLA/main.cpp:143:0
	jmp	LBB0_32
Ltmp97:
LBB0_39:                                ##   in Loop: Header=BB0_21 Depth=1
	.loc	1 152 0                 ## /Users/Vincenzo/Desktop/COMAP_EBOLA/COMAP_EBOLA/main.cpp:152:0
	movslq	-35628(%rbp), %rax
	leaq	(%rax,%rax,2), %rax
	shlq	$5, %rax
	cvtsi2sdl	-34976(%rbp,%rax), %xmm0
	cvtsi2sdl	-35624(%rbp), %xmm1
	divsd	%xmm1, %xmm0
	cvtsi2sdl	-34972(%rbp,%rax), %xmm2
	divsd	%xmm1, %xmm2
	movl	-34968(%rbp,%rax), %esi
Ltmp16:
	leaq	L_.str4(%rip), %rdi
	movb	$2, %al
	movaps	%xmm2, %xmm1
	callq	_printf
Ltmp17:
	movl	%eax, -35768(%rbp)      ## 4-byte Spill
	jmp	LBB0_40
LBB0_40:                                ##   in Loop: Header=BB0_21 Depth=1
	.loc	1 155 0                 ## /Users/Vincenzo/Desktop/COMAP_EBOLA/COMAP_EBOLA/main.cpp:155:0
	jmp	LBB0_41
Ltmp98:
LBB0_41:                                ##   in Loop: Header=BB0_21 Depth=1
	.loc	1 105 0                 ## /Users/Vincenzo/Desktop/COMAP_EBOLA/COMAP_EBOLA/main.cpp:105:0
	movl	-35628(%rbp), %eax
	addl	$1, %eax
	movl	%eax, -35628(%rbp)
	jmp	LBB0_21
Ltmp99:
LBB0_42:
	leaq	-35600(%rbp), %rdi
	.loc	1 158 0                 ## /Users/Vincenzo/Desktop/COMAP_EBOLA/COMAP_EBOLA/main.cpp:158:0
	movl	$0, -35516(%rbp)
	movl	$1, -35632(%rbp)
	callq	__ZNSt3__15queueIiNS_5dequeIiNS_9allocatorIiEEEEED1Ev
	leaq	-35056(%rbp), %rdi
	movq	%rdi, %rax
	addq	$35040, %rax            ## imm = 0x88E0
	movq	%rdi, -35776(%rbp)      ## 8-byte Spill
	movq	%rax, -35784(%rbp)      ## 8-byte Spill
LBB0_43:                                ## =>This Inner Loop Header: Depth=1
	movq	-35784(%rbp), %rax      ## 8-byte Reload
	addq	$-96, %rax
	movq	%rax, %rdi
	movq	%rax, -35792(%rbp)      ## 8-byte Spill
	callq	__ZN4cityD1Ev
	movq	-35792(%rbp), %rax      ## 8-byte Reload
	movq	-35776(%rbp), %rdi      ## 8-byte Reload
	cmpq	%rdi, %rax
	movq	%rax, -35784(%rbp)      ## 8-byte Spill
	jne	LBB0_43
## BB#44:
	movq	___stack_chk_guard@GOTPCREL(%rip), %rax
	.loc	1 159 0                 ## /Users/Vincenzo/Desktop/COMAP_EBOLA/COMAP_EBOLA/main.cpp:159:0
	movl	-35516(%rbp), %ecx
	movq	(%rax), %rax
	cmpq	-8(%rbp), %rax
	movl	%ecx, -35796(%rbp)      ## 4-byte Spill
	jne	LBB0_49
## BB#45:                               ## %SP_return
	movl	-35796(%rbp), %eax      ## 4-byte Reload
	addq	$35808, %rsp            ## imm = 0x8BE0
	popq	%rbp
	retq
LBB0_46:                                ## =>This Inner Loop Header: Depth=1
	movq	-35672(%rbp), %rax      ## 8-byte Reload
	addq	$-96, %rax
	movq	%rax, %rdi
	movq	%rax, -35808(%rbp)      ## 8-byte Spill
	callq	__ZN4cityD1Ev
	movq	-35808(%rbp), %rax      ## 8-byte Reload
	movq	-35664(%rbp), %rdi      ## 8-byte Reload
	cmpq	%rdi, %rax
	movq	%rax, -35672(%rbp)      ## 8-byte Spill
	jne	LBB0_46
## BB#47:
	jmp	LBB0_48
LBB0_48:
	movq	-35616(%rbp), %rdi
	callq	__Unwind_Resume
Ltmp100:
LBB0_49:                                ## %CallStackCheckFailBlk
	callq	___stack_chk_fail
Lfunc_end0:
	.cfi_endproc
Leh_func_end0:
	.section	__TEXT,__gcc_except_tab
	.align	2
GCC_except_table0:
Lexception0:
	.byte	255                     ## @LPStart Encoding = omit
	.byte	155                     ## @TType Encoding = indirect pcrel sdata4
	.asciz	"\266\200\200"          ## @TType base offset
	.byte	3                       ## Call site Encoding = udata4
	.byte	52                      ## Call site table length
Lset0 = Ltmp24-Leh_func_begin0          ## >> Call Site 1 <<
	.long	Lset0
Lset1 = Ltmp11-Ltmp24                   ##   Call between Ltmp24 and Ltmp11
	.long	Lset1
Lset2 = Ltmp26-Leh_func_begin0          ##     jumps to Ltmp26
	.long	Lset2
	.byte	0                       ##   On action: cleanup
Lset3 = Ltmp11-Leh_func_begin0          ## >> Call Site 2 <<
	.long	Lset3
Lset4 = Ltmp12-Ltmp11                   ##   Call between Ltmp11 and Ltmp12
	.long	Lset4
	.long	0                       ##     has no landing pad
	.byte	0                       ##   On action: cleanup
Lset5 = Ltmp12-Leh_func_begin0          ## >> Call Site 3 <<
	.long	Lset5
Lset6 = Ltmp17-Ltmp12                   ##   Call between Ltmp12 and Ltmp17
	.long	Lset6
Lset7 = Ltmp26-Leh_func_begin0          ##     jumps to Ltmp26
	.long	Lset7
	.byte	0                       ##   On action: cleanup
Lset8 = Ltmp17-Leh_func_begin0          ## >> Call Site 4 <<
	.long	Lset8
Lset9 = Leh_func_end0-Ltmp17            ##   Call between Ltmp17 and Leh_func_end0
	.long	Lset9
	.long	0                       ##     has no landing pad
	.byte	0                       ##   On action: cleanup
	.align	2

	.section	__TEXT,__textcoal_nt,coalesced,pure_instructions
	.private_extern	__ZN4cityC1Ev
	.globl	__ZN4cityC1Ev
	.weak_def_can_be_hidden	__ZN4cityC1Ev
	.align	4, 0x90
__ZN4cityC1Ev:                          ## @_ZN4cityC1Ev
Lfunc_begin1:
	.loc	1 41 0                  ## /Users/Vincenzo/Desktop/COMAP_EBOLA/COMAP_EBOLA/main.cpp:41:0
	.cfi_startproc
## BB#0:
	pushq	%rbp
Ltmp103:
	.cfi_def_cfa_offset 16
Ltmp104:
	.cfi_offset %rbp, -16
	movq	%rsp, %rbp
Ltmp105:
	.cfi_def_cfa_register %rbp
	subq	$16, %rsp
	movq	%rdi, -8(%rbp)
	movq	-8(%rbp), %rdi
	.loc	1 41 0 prologue_end     ## /Users/Vincenzo/Desktop/COMAP_EBOLA/COMAP_EBOLA/main.cpp:41:0
Ltmp106:
	callq	__ZN4cityC2Ev
	addq	$16, %rsp
	popq	%rbp
	retq
Ltmp107:
Lfunc_end1:
	.cfi_endproc

	.private_extern	__ZN4cityaSERKS_
	.globl	__ZN4cityaSERKS_
	.weak_def_can_be_hidden	__ZN4cityaSERKS_
	.align	4, 0x90
__ZN4cityaSERKS_:                       ## @_ZN4cityaSERKS_
Lfunc_begin2:
	.loc	1 41 0                  ## /Users/Vincenzo/Desktop/COMAP_EBOLA/COMAP_EBOLA/main.cpp:41:0
	.cfi_startproc
## BB#0:
	pushq	%rbp
Ltmp110:
	.cfi_def_cfa_offset 16
Ltmp111:
	.cfi_offset %rbp, -16
	movq	%rsp, %rbp
Ltmp112:
	.cfi_def_cfa_register %rbp
	subq	$112, %rsp
	movq	%rdi, -80(%rbp)
	movq	%rsi, -88(%rbp)
	movq	-80(%rbp), %rsi
	.loc	1 41 0 prologue_end     ## /Users/Vincenzo/Desktop/COMAP_EBOLA/COMAP_EBOLA/main.cpp:41:0
Ltmp113:
	movq	-88(%rbp), %rdi
	movq	(%rdi), %rdi
	movq	%rdi, (%rsi)
	movq	%rsi, %rdi
	addq	$8, %rdi
	movq	-88(%rbp), %rax
	addq	$8, %rax
	movq	%rdi, -64(%rbp)
	movq	%rax, -72(%rbp)
	movq	-64(%rbp), %rdi
	.loc	12 222 0                ## /Applications/Xcode.app/Contents/Developer/Toolchains/XcodeDefault.xctoolchain/usr/bin/../include/c++/v1/queue:222:0
Ltmp114:
	movq	-72(%rbp), %rax
	movq	%rsi, -96(%rbp)         ## 8-byte Spill
	movq	%rax, %rsi
	callq	__ZNSt3__15dequeIiNS_9allocatorIiEEEaSERKS3_
Ltmp115:
	.loc	1 41 0                  ## /Users/Vincenzo/Desktop/COMAP_EBOLA/COMAP_EBOLA/main.cpp:41:0
	movq	-96(%rbp), %rsi         ## 8-byte Reload
	addq	$56, %rsi
	movq	-88(%rbp), %rdi
	addq	$56, %rdi
	movq	%rsi, -48(%rbp)
	movq	%rdi, -56(%rbp)
	movq	-48(%rbp), %rsi
	.loc	16 1304 0               ## /Applications/Xcode.app/Contents/Developer/Toolchains/XcodeDefault.xctoolchain/usr/bin/../include/c++/v1/vector:1304:0
Ltmp116:
	cmpq	-56(%rbp), %rsi
	movq	%rax, -104(%rbp)        ## 8-byte Spill
	movq	%rsi, -112(%rbp)        ## 8-byte Spill
	je	LBB2_2
## BB#1:
	.loc	16 1306 0               ## /Applications/Xcode.app/Contents/Developer/Toolchains/XcodeDefault.xctoolchain/usr/bin/../include/c++/v1/vector:1306:0
	movq	-112(%rbp), %rax        ## 8-byte Reload
	movq	-56(%rbp), %rcx
	movq	%rax, -24(%rbp)
	movq	%rcx, -32(%rbp)
	movq	-24(%rbp), %rax
	.loc	16 382 0                ## /Applications/Xcode.app/Contents/Developer/Toolchains/XcodeDefault.xctoolchain/usr/bin/../include/c++/v1/vector:382:0
Ltmp117:
	movq	-32(%rbp), %rcx
	movq	%rax, -8(%rbp)
	movq	%rcx, -16(%rbp)
Ltmp118:
	.loc	16 1307 0               ## /Applications/Xcode.app/Contents/Developer/Toolchains/XcodeDefault.xctoolchain/usr/bin/../include/c++/v1/vector:1307:0
	movq	-56(%rbp), %rax
	movq	(%rax), %rsi
	movq	-56(%rbp), %rax
	movq	8(%rax), %rdx
	movq	-112(%rbp), %rdi        ## 8-byte Reload
	callq	__ZNSt3__16vectorIP4cityNS_9allocatorIS2_EEE6assignIPS2_EENS_9enable_ifIXaasr21__is_forward_iteratorIT_EE5valuesr16is_constructibleIS2_NS_15iterator_traitsIS9_E9referenceEEE5valueEvE4typeES9_S9_
Ltmp119:
LBB2_2:                                 ## %_ZNSt3__16vectorIP4cityNS_9allocatorIS2_EEEaSERKS5_.exit
	.loc	1 41 0                  ## /Users/Vincenzo/Desktop/COMAP_EBOLA/COMAP_EBOLA/main.cpp:41:0
	movq	-88(%rbp), %rax
	movq	80(%rax), %rcx
	movq	-96(%rbp), %rdx         ## 8-byte Reload
	movq	%rcx, 80(%rdx)
	movl	88(%rax), %esi
	movl	%esi, 88(%rdx)
	movq	%rdx, %rax
	addq	$112, %rsp
	popq	%rbp
	retq
Ltmp120:
Lfunc_end2:
	.cfi_endproc

	.private_extern	__ZNSt3__15queueIiNS_5dequeIiNS_9allocatorIiEEEEED1Ev
	.globl	__ZNSt3__15queueIiNS_5dequeIiNS_9allocatorIiEEEEED1Ev
	.weak_def_can_be_hidden	__ZNSt3__15queueIiNS_5dequeIiNS_9allocatorIiEEEEED1Ev
	.align	4, 0x90
__ZNSt3__15queueIiNS_5dequeIiNS_9allocatorIiEEEEED1Ev: ## @_ZNSt3__15queueIiNS_5dequeIiNS_9allocatorIiEEEEED1Ev
Lfunc_begin3:
	.loc	12 193 0                ## /Applications/Xcode.app/Contents/Developer/Toolchains/XcodeDefault.xctoolchain/usr/bin/../include/c++/v1/queue:193:0
	.cfi_startproc
## BB#0:
	pushq	%rbp
Ltmp123:
	.cfi_def_cfa_offset 16
Ltmp124:
	.cfi_offset %rbp, -16
	movq	%rsp, %rbp
Ltmp125:
	.cfi_def_cfa_register %rbp
	subq	$16, %rsp
	movq	%rdi, -8(%rbp)
	movq	-8(%rbp), %rdi
	.loc	12 193 0 prologue_end   ## /Applications/Xcode.app/Contents/Developer/Toolchains/XcodeDefault.xctoolchain/usr/bin/../include/c++/v1/queue:193:0
Ltmp126:
	callq	__ZNSt3__15queueIiNS_5dequeIiNS_9allocatorIiEEEEED2Ev
	addq	$16, %rsp
	popq	%rbp
	retq
Ltmp127:
Lfunc_end3:
	.cfi_endproc

	.private_extern	__ZN4cityD1Ev
	.globl	__ZN4cityD1Ev
	.weak_def_can_be_hidden	__ZN4cityD1Ev
	.align	4, 0x90
__ZN4cityD1Ev:                          ## @_ZN4cityD1Ev
Lfunc_begin4:
	.loc	1 41 0                  ## /Users/Vincenzo/Desktop/COMAP_EBOLA/COMAP_EBOLA/main.cpp:41:0
	.cfi_startproc
## BB#0:
	pushq	%rbp
Ltmp130:
	.cfi_def_cfa_offset 16
Ltmp131:
	.cfi_offset %rbp, -16
	movq	%rsp, %rbp
Ltmp132:
	.cfi_def_cfa_register %rbp
	subq	$16, %rsp
	movq	%rdi, -8(%rbp)
	movq	-8(%rbp), %rdi
	.loc	1 41 0 prologue_end     ## /Users/Vincenzo/Desktop/COMAP_EBOLA/COMAP_EBOLA/main.cpp:41:0
Ltmp133:
	callq	__ZN4cityD2Ev
	addq	$16, %rsp
	popq	%rbp
	retq
Ltmp134:
Lfunc_end4:
	.cfi_endproc

	.globl	__ZNSt3__15dequeIiNS_9allocatorIiEEE9pop_frontEv
	.weak_def_can_be_hidden	__ZNSt3__15dequeIiNS_9allocatorIiEEE9pop_frontEv
	.align	4, 0x90
__ZNSt3__15dequeIiNS_9allocatorIiEEE9pop_frontEv: ## @_ZNSt3__15dequeIiNS_9allocatorIiEEE9pop_frontEv
Lfunc_begin5:
	.loc	3 2533 0                ## /Applications/Xcode.app/Contents/Developer/Toolchains/XcodeDefault.xctoolchain/usr/bin/../include/c++/v1/deque:2533:0
	.cfi_startproc
## BB#0:
	pushq	%rbp
Ltmp137:
	.cfi_def_cfa_offset 16
Ltmp138:
	.cfi_offset %rbp, -16
	movq	%rsp, %rbp
Ltmp139:
	.cfi_def_cfa_register %rbp
	subq	$272, %rsp              ## imm = 0x110
	movq	%rdi, -256(%rbp)
	movq	-256(%rbp), %rdi
	.loc	3 2534 0 prologue_end   ## /Applications/Xcode.app/Contents/Developer/Toolchains/XcodeDefault.xctoolchain/usr/bin/../include/c++/v1/deque:2534:0
Ltmp140:
	movq	%rdi, %rax
	movq	%rax, -248(%rbp)
	movq	-248(%rbp), %rax
	.loc	3 950 0                 ## /Applications/Xcode.app/Contents/Developer/Toolchains/XcodeDefault.xctoolchain/usr/bin/../include/c++/v1/deque:950:0
Ltmp141:
	addq	$40, %rax
	movq	%rax, -240(%rbp)
	movq	-240(%rbp), %rax
	movq	%rax, -232(%rbp)
	movq	-232(%rbp), %rax
Ltmp142:
	.loc	3 2534 0                ## /Applications/Xcode.app/Contents/Developer/Toolchains/XcodeDefault.xctoolchain/usr/bin/../include/c++/v1/deque:2534:0
	movq	%rax, -264(%rbp)
	.loc	3 2535 0                ## /Applications/Xcode.app/Contents/Developer/Toolchains/XcodeDefault.xctoolchain/usr/bin/../include/c++/v1/deque:2535:0
	movq	-264(%rbp), %rax
	movq	%rdi, %rcx
	movq	%rcx, -120(%rbp)
	movq	-120(%rbp), %rcx
	.loc	9 76 0                  ## /Applications/Xcode.app/Contents/Developer/Toolchains/XcodeDefault.xctoolchain/usr/bin/../include/c++/v1/__split_buffer:76:0
Ltmp143:
	movq	8(%rcx), %rcx
Ltmp144:
	.loc	3 2535 0                ## /Applications/Xcode.app/Contents/Developer/Toolchains/XcodeDefault.xctoolchain/usr/bin/../include/c++/v1/deque:2535:0
	movq	32(%rdi), %rdx
	shrq	$10, %rdx
	movq	(%rcx,%rdx,8), %rcx
	movq	32(%rdi), %rdx
	andq	$1023, %rdx             ## imm = 0x3FF
	shlq	$2, %rdx
	addq	%rdx, %rcx
	movq	%rcx, -8(%rbp)
	.loc	4 1039 0                ## /Applications/Xcode.app/Contents/Developer/Toolchains/XcodeDefault.xctoolchain/usr/bin/../include/c++/v1/memory:1039:0
Ltmp145:
	movq	-8(%rbp), %rcx
	movq	%rax, -56(%rbp)
	movq	%rcx, -64(%rbp)
Ltmp146:
	.loc	4 1483 0                ## /Applications/Xcode.app/Contents/Developer/Toolchains/XcodeDefault.xctoolchain/usr/bin/../include/c++/v1/memory:1483:0
	movq	-56(%rbp), %rax
	movq	-64(%rbp), %rcx
	movq	%rax, -40(%rbp)
	movq	%rcx, -48(%rbp)
	.loc	4 1580 0                ## /Applications/Xcode.app/Contents/Developer/Toolchains/XcodeDefault.xctoolchain/usr/bin/../include/c++/v1/memory:1580:0
Ltmp147:
	movq	-40(%rbp), %rax
	movq	-48(%rbp), %rcx
	movq	%rax, -16(%rbp)
	movq	%rcx, -24(%rbp)
Ltmp148:
	.loc	3 2538 0                ## /Applications/Xcode.app/Contents/Developer/Toolchains/XcodeDefault.xctoolchain/usr/bin/../include/c++/v1/deque:2538:0
	movq	%rdi, %rax
	movq	%rax, -104(%rbp)
	movq	-104(%rbp), %rax
	.loc	3 947 0                 ## /Applications/Xcode.app/Contents/Developer/Toolchains/XcodeDefault.xctoolchain/usr/bin/../include/c++/v1/deque:947:0
Ltmp149:
	addq	$40, %rax
	movq	%rax, -96(%rbp)
	movq	-96(%rbp), %rax
	movq	%rax, -88(%rbp)
	movq	-88(%rbp), %rax
Ltmp150:
	.loc	3 2538 0                ## /Applications/Xcode.app/Contents/Developer/Toolchains/XcodeDefault.xctoolchain/usr/bin/../include/c++/v1/deque:2538:0
	movq	(%rax), %rcx
	addq	$-1, %rcx
	movq	%rcx, (%rax)
	.loc	3 2539 0                ## /Applications/Xcode.app/Contents/Developer/Toolchains/XcodeDefault.xctoolchain/usr/bin/../include/c++/v1/deque:2539:0
Ltmp151:
	movq	32(%rdi), %rax
	addq	$1, %rax
	movq	%rax, 32(%rdi)
	cmpq	$2048, %rax             ## imm = 0x800
	movq	%rdi, -272(%rbp)        ## 8-byte Spill
	jb	LBB5_2
## BB#1:
	.loc	3 2541 0                ## /Applications/Xcode.app/Contents/Developer/Toolchains/XcodeDefault.xctoolchain/usr/bin/../include/c++/v1/deque:2541:0
Ltmp152:
	movq	-264(%rbp), %rax
	movq	-272(%rbp), %rcx        ## 8-byte Reload
	movq	%rcx, -112(%rbp)
	movq	-112(%rbp), %rcx
	.loc	9 90 0                  ## /Applications/Xcode.app/Contents/Developer/Toolchains/XcodeDefault.xctoolchain/usr/bin/../include/c++/v1/__split_buffer:90:0
Ltmp153:
	movq	8(%rcx), %rcx
Ltmp154:
	.loc	3 2541 0                ## /Applications/Xcode.app/Contents/Developer/Toolchains/XcodeDefault.xctoolchain/usr/bin/../include/c++/v1/deque:2541:0
	movq	(%rcx), %rcx
	movq	%rax, -152(%rbp)
	movq	%rcx, -160(%rbp)
	movq	$1024, -168(%rbp)       ## imm = 0x400
	.loc	4 1443 0                ## /Applications/Xcode.app/Contents/Developer/Toolchains/XcodeDefault.xctoolchain/usr/bin/../include/c++/v1/memory:1443:0
Ltmp155:
	movq	-152(%rbp), %rax
	movq	-160(%rbp), %rcx
	movq	-168(%rbp), %rdx
	movq	%rax, -128(%rbp)
	movq	%rcx, -136(%rbp)
	movq	%rdx, -144(%rbp)
	.loc	4 1632 0                ## /Applications/Xcode.app/Contents/Developer/Toolchains/XcodeDefault.xctoolchain/usr/bin/../include/c++/v1/memory:1632:0
Ltmp156:
	movq	-136(%rbp), %rax
	movq	%rax, %rdi
	callq	__ZdlPv
Ltmp157:
	.loc	3 2542 0                ## /Applications/Xcode.app/Contents/Developer/Toolchains/XcodeDefault.xctoolchain/usr/bin/../include/c++/v1/deque:2542:0
	movq	-272(%rbp), %rax        ## 8-byte Reload
	movq	%rax, -224(%rbp)
	movq	-224(%rbp), %rax
	.loc	9 108 0                 ## /Applications/Xcode.app/Contents/Developer/Toolchains/XcodeDefault.xctoolchain/usr/bin/../include/c++/v1/__split_buffer:108:0
Ltmp158:
	movq	8(%rax), %rcx
	addq	$8, %rcx
	movq	%rax, -192(%rbp)
	movq	%rcx, -200(%rbp)
	movq	-192(%rbp), %rax
	.loc	9 130 0                 ## /Applications/Xcode.app/Contents/Developer/Toolchains/XcodeDefault.xctoolchain/usr/bin/../include/c++/v1/__split_buffer:130:0
Ltmp159:
	movq	-200(%rbp), %rcx
	movq	%rax, -176(%rbp)
	movq	%rcx, -184(%rbp)
	movq	-176(%rbp), %rax
	.loc	9 301 0                 ## /Applications/Xcode.app/Contents/Developer/Toolchains/XcodeDefault.xctoolchain/usr/bin/../include/c++/v1/__split_buffer:301:0
Ltmp160:
	movq	-184(%rbp), %rcx
	movq	%rcx, 8(%rax)
Ltmp161:
	.loc	3 2543 0                ## /Applications/Xcode.app/Contents/Developer/Toolchains/XcodeDefault.xctoolchain/usr/bin/../include/c++/v1/deque:2543:0
	movq	-272(%rbp), %rax        ## 8-byte Reload
	movq	32(%rax), %rcx
	subq	$1024, %rcx             ## imm = 0x400
	movq	%rcx, 32(%rax)
Ltmp162:
LBB5_2:
	.loc	3 2545 0                ## /Applications/Xcode.app/Contents/Developer/Toolchains/XcodeDefault.xctoolchain/usr/bin/../include/c++/v1/deque:2545:0
	addq	$272, %rsp              ## imm = 0x110
	popq	%rbp
	retq
Ltmp163:
Lfunc_end5:
	.cfi_endproc

	.globl	__ZNSt3__15dequeIiNS_9allocatorIiEEEaSERKS3_
	.weak_def_can_be_hidden	__ZNSt3__15dequeIiNS_9allocatorIiEEEaSERKS3_
	.align	4, 0x90
__ZNSt3__15dequeIiNS_9allocatorIiEEEaSERKS3_: ## @_ZNSt3__15dequeIiNS_9allocatorIiEEEaSERKS3_
Lfunc_begin6:
	.loc	3 1514 0                ## /Applications/Xcode.app/Contents/Developer/Toolchains/XcodeDefault.xctoolchain/usr/bin/../include/c++/v1/deque:1514:0
	.cfi_startproc
## BB#0:
	pushq	%rbp
Ltmp166:
	.cfi_def_cfa_offset 16
Ltmp167:
	.cfi_offset %rbp, -16
	movq	%rsp, %rbp
Ltmp168:
	.cfi_def_cfa_register %rbp
	subq	$160, %rsp
	movq	%rdi, -96(%rbp)
	movq	%rsi, -104(%rbp)
	movq	-96(%rbp), %rsi
	.loc	3 1515 0 prologue_end   ## /Applications/Xcode.app/Contents/Developer/Toolchains/XcodeDefault.xctoolchain/usr/bin/../include/c++/v1/deque:1515:0
Ltmp169:
	cmpq	-104(%rbp), %rsi
	movq	%rsi, -144(%rbp)        ## 8-byte Spill
	je	LBB6_2
## BB#1:
	movabsq	$0, %r9
	.loc	3 1517 0                ## /Applications/Xcode.app/Contents/Developer/Toolchains/XcodeDefault.xctoolchain/usr/bin/../include/c++/v1/deque:1517:0
Ltmp170:
	movq	-104(%rbp), %rax
	movq	-144(%rbp), %rcx        ## 8-byte Reload
	movq	%rcx, -72(%rbp)
	movq	%rax, -80(%rbp)
	movq	-72(%rbp), %rdx
	movq	%rdx, -56(%rbp)
	movq	%rax, -64(%rbp)
	.loc	3 1518 0                ## /Applications/Xcode.app/Contents/Developer/Toolchains/XcodeDefault.xctoolchain/usr/bin/../include/c++/v1/deque:1518:0
	movq	-104(%rbp), %rax
	movq	%rax, -48(%rbp)
	.loc	3 1265 0                ## /Applications/Xcode.app/Contents/Developer/Toolchains/XcodeDefault.xctoolchain/usr/bin/../include/c++/v1/deque:1265:0
Ltmp171:
	movq	%rax, %rdi
	movq	%r9, -152(%rbp)         ## 8-byte Spill
	callq	__ZNKSt3__112__deque_baseIiNS_9allocatorIiEEE5beginEv
	movq	%rax, -40(%rbp)
	movq	%rdx, -32(%rbp)
	movq	-40(%rbp), %rax
Ltmp172:
	.loc	3 1518 0                ## /Applications/Xcode.app/Contents/Developer/Toolchains/XcodeDefault.xctoolchain/usr/bin/../include/c++/v1/deque:1518:0
	movq	%rax, -120(%rbp)
	movq	%rdx, -112(%rbp)
	movq	-104(%rbp), %rax
	movq	%rax, -24(%rbp)
	.loc	3 1269 0                ## /Applications/Xcode.app/Contents/Developer/Toolchains/XcodeDefault.xctoolchain/usr/bin/../include/c++/v1/deque:1269:0
Ltmp173:
	movq	%rax, %rdi
	callq	__ZNKSt3__112__deque_baseIiNS_9allocatorIiEEE3endEv
	movq	%rax, -16(%rbp)
	movq	%rdx, -8(%rbp)
	movq	-16(%rbp), %rax
Ltmp174:
	.loc	3 1518 0                ## /Applications/Xcode.app/Contents/Developer/Toolchains/XcodeDefault.xctoolchain/usr/bin/../include/c++/v1/deque:1518:0
	movq	%rax, -136(%rbp)
	movq	%rdx, -128(%rbp)
	movq	-120(%rbp), %rsi
	movq	-112(%rbp), %rdx
	movq	-136(%rbp), %rcx
	movq	-128(%rbp), %r8
	movq	-144(%rbp), %rdi        ## 8-byte Reload
	movq	-152(%rbp), %r9         ## 8-byte Reload
	callq	__ZNSt3__15dequeIiNS_9allocatorIiEEE6assignINS_16__deque_iteratorIiPKiRS6_PKS7_lLl1024EEEEEvT_SC_PNS_9enable_ifIXsr27__is_random_access_iteratorISC_EE5valueEvE4typeE
Ltmp175:
LBB6_2:
	.loc	3 1520 0                ## /Applications/Xcode.app/Contents/Developer/Toolchains/XcodeDefault.xctoolchain/usr/bin/../include/c++/v1/deque:1520:0
	movq	-144(%rbp), %rax        ## 8-byte Reload
	addq	$160, %rsp
	popq	%rbp
	retq
Ltmp176:
Lfunc_end6:
	.cfi_endproc

	.globl	__ZNSt3__15dequeIiNS_9allocatorIiEEE6assignINS_16__deque_iteratorIiPKiRS6_PKS7_lLl1024EEEEEvT_SC_PNS_9enable_ifIXsr27__is_random_access_iteratorISC_EE5valueEvE4typeE
	.weak_def_can_be_hidden	__ZNSt3__15dequeIiNS_9allocatorIiEEE6assignINS_16__deque_iteratorIiPKiRS6_PKS7_lLl1024EEEEEvT_SC_PNS_9enable_ifIXsr27__is_random_access_iteratorISC_EE5valueEvE4typeE
	.align	4, 0x90
__ZNSt3__15dequeIiNS_9allocatorIiEEE6assignINS_16__deque_iteratorIiPKiRS6_PKS7_lLl1024EEEEEvT_SC_PNS_9enable_ifIXsr27__is_random_access_iteratorISC_EE5valueEvE4typeE: ## @_ZNSt3__15dequeIiNS_9allocatorIiEEE6assignINS_16__deque_iteratorIiPKiRS6_PKS7_lLl1024EEEEEvT_SC_PNS_9enable_ifIXsr27__is_random_access_iteratorISC_EE5valueEvE4typeE
Lfunc_begin7:
	.loc	3 1604 0                ## /Applications/Xcode.app/Contents/Developer/Toolchains/XcodeDefault.xctoolchain/usr/bin/../include/c++/v1/deque:1604:0
	.cfi_startproc
## BB#0:
	pushq	%rbp
Ltmp179:
	.cfi_def_cfa_offset 16
Ltmp180:
	.cfi_offset %rbp, -16
	movq	%rsp, %rbp
Ltmp181:
	.cfi_def_cfa_register %rbp
	subq	$512, %rsp              ## imm = 0x200
	leaq	-224(%rbp), %rax
	leaq	-240(%rbp), %r10
	movq	%rsi, -224(%rbp)
	movq	%rdx, -216(%rbp)
	movq	%rcx, -240(%rbp)
	movq	%r8, -232(%rbp)
	movq	%rdi, -248(%rbp)
	##DEBUG_VALUE: assign<std::__1::__deque_iterator<int, const int *, const int &, const int *const *, long, 1024> >:__f <- RAX
	##DEBUG_VALUE: assign<std::__1::__deque_iterator<int, const int *, const int &, const int *const *, long, 1024> >:__l <- R10
	movq	%r9, -256(%rbp)
	movq	-248(%rbp), %rcx
	movq	%r10, -200(%rbp)
	movq	%rax, -208(%rbp)
	.loc	3 378 0 prologue_end    ## /Applications/Xcode.app/Contents/Developer/Toolchains/XcodeDefault.xctoolchain/usr/bin/../include/c++/v1/deque:378:0
Ltmp182:
	movq	-200(%rbp), %rax
Ltmp183:
	movq	-208(%rbp), %rdx
	movq	%rax, -176(%rbp)
	movq	%rdx, -184(%rbp)
	.loc	3 394 0                 ## /Applications/Xcode.app/Contents/Developer/Toolchains/XcodeDefault.xctoolchain/usr/bin/../include/c++/v1/deque:394:0
Ltmp184:
	movq	-176(%rbp), %rax
	movq	-184(%rbp), %rdx
	movq	%rax, -160(%rbp)
	movq	%rdx, -168(%rbp)
	.loc	3 390 0                 ## /Applications/Xcode.app/Contents/Developer/Toolchains/XcodeDefault.xctoolchain/usr/bin/../include/c++/v1/deque:390:0
Ltmp185:
	movq	-160(%rbp), %rax
	movq	8(%rax), %rax
	movq	-168(%rbp), %rdx
	cmpq	8(%rdx), %rax
	sete	%r11b
Ltmp186:
	.loc	3 394 0                 ## /Applications/Xcode.app/Contents/Developer/Toolchains/XcodeDefault.xctoolchain/usr/bin/../include/c++/v1/deque:394:0
	xorb	$1, %r11b
Ltmp187:
	.loc	3 378 0                 ## /Applications/Xcode.app/Contents/Developer/Toolchains/XcodeDefault.xctoolchain/usr/bin/../include/c++/v1/deque:378:0
	testb	$1, %r11b
	movq	%rcx, -456(%rbp)        ## 8-byte Spill
	jne	LBB7_1
	jmp	LBB7_2
Ltmp188:
LBB7_1:
	.loc	3 379 0                 ## /Applications/Xcode.app/Contents/Developer/Toolchains/XcodeDefault.xctoolchain/usr/bin/../include/c++/v1/deque:379:0
	movq	-200(%rbp), %rax
	movq	(%rax), %rax
	movq	-208(%rbp), %rcx
	movq	(%rcx), %rcx
	subq	%rcx, %rax
	sarq	$3, %rax
	shlq	$10, %rax
	movq	-200(%rbp), %rcx
	movq	8(%rcx), %rcx
	movq	-200(%rbp), %rdx
	movq	(%rdx), %rdx
	movq	(%rdx), %rdx
	subq	%rdx, %rcx
	sarq	$2, %rcx
	addq	%rcx, %rax
	movq	-208(%rbp), %rcx
	movq	8(%rcx), %rcx
	movq	-208(%rbp), %rdx
	movq	(%rdx), %rdx
	movq	(%rdx), %rdx
	subq	%rdx, %rcx
	sarq	$2, %rcx
	subq	%rcx, %rax
	movq	%rax, -192(%rbp)
	jmp	LBB7_3
LBB7_2:
	.loc	3 382 0                 ## /Applications/Xcode.app/Contents/Developer/Toolchains/XcodeDefault.xctoolchain/usr/bin/../include/c++/v1/deque:382:0
	movq	$0, -192(%rbp)
LBB7_3:                                 ## %_ZNSt3__1miERKNS_16__deque_iteratorIiPKiRS1_PKS2_lLl1024EEES8_.exit
	.loc	3 383 0                 ## /Applications/Xcode.app/Contents/Developer/Toolchains/XcodeDefault.xctoolchain/usr/bin/../include/c++/v1/deque:383:0
	movq	-192(%rbp), %rax
Ltmp189:
	.loc	3 1605 0                ## /Applications/Xcode.app/Contents/Developer/Toolchains/XcodeDefault.xctoolchain/usr/bin/../include/c++/v1/deque:1605:0
	movq	-456(%rbp), %rcx        ## 8-byte Reload
	movq	%rcx, -152(%rbp)
	movq	-152(%rbp), %rcx
	.loc	3 947 0                 ## /Applications/Xcode.app/Contents/Developer/Toolchains/XcodeDefault.xctoolchain/usr/bin/../include/c++/v1/deque:947:0
Ltmp190:
	addq	$40, %rcx
	movq	%rcx, -144(%rbp)
	movq	-144(%rbp), %rcx
	movq	%rcx, -136(%rbp)
	movq	-136(%rbp), %rcx
Ltmp191:
	.loc	3 1605 0                ## /Applications/Xcode.app/Contents/Developer/Toolchains/XcodeDefault.xctoolchain/usr/bin/../include/c++/v1/deque:1605:0
	cmpq	(%rcx), %rax
	jbe	LBB7_10
## BB#4:
	leaq	-40(%rbp), %rax
	leaq	-224(%rbp), %rcx
	.loc	3 1607 0                ## /Applications/Xcode.app/Contents/Developer/Toolchains/XcodeDefault.xctoolchain/usr/bin/../include/c++/v1/deque:1607:0
Ltmp192:
	movq	-456(%rbp), %rdx        ## 8-byte Reload
	movq	%rdx, -80(%rbp)
	movq	-80(%rbp), %rdx
	.loc	3 947 0                 ## /Applications/Xcode.app/Contents/Developer/Toolchains/XcodeDefault.xctoolchain/usr/bin/../include/c++/v1/deque:947:0
Ltmp193:
	addq	$40, %rdx
	movq	%rdx, -72(%rbp)
	movq	-72(%rbp), %rdx
	movq	%rdx, -64(%rbp)
	movq	-64(%rbp), %rdx
Ltmp194:
	.loc	3 1607 0                ## /Applications/Xcode.app/Contents/Developer/Toolchains/XcodeDefault.xctoolchain/usr/bin/../include/c++/v1/deque:1607:0
	movq	(%rdx), %rdx
	movq	%rcx, -48(%rbp)
	movq	%rdx, -56(%rbp)
	movq	-48(%rbp), %rcx
Ltmp195:
	##DEBUG_VALUE: __t <- RAX
	.loc	3 359 0                 ## /Applications/Xcode.app/Contents/Developer/Toolchains/XcodeDefault.xctoolchain/usr/bin/../include/c++/v1/deque:359:0
	movq	(%rcx), %rdx
	movq	%rdx, -40(%rbp)
	movq	8(%rcx), %rcx
	movq	%rcx, -32(%rbp)
	.loc	3 360 0                 ## /Applications/Xcode.app/Contents/Developer/Toolchains/XcodeDefault.xctoolchain/usr/bin/../include/c++/v1/deque:360:0
	movq	-56(%rbp), %rcx
	movq	%rax, -8(%rbp)
	movq	%rcx, -16(%rbp)
	movq	-8(%rbp), %rax
Ltmp196:
	.loc	3 334 0                 ## /Applications/Xcode.app/Contents/Developer/Toolchains/XcodeDefault.xctoolchain/usr/bin/../include/c++/v1/deque:334:0
	cmpq	$0, -16(%rbp)
	movq	%rax, -464(%rbp)        ## 8-byte Spill
	je	LBB7_9
## BB#5:
	.loc	3 336 0                 ## /Applications/Xcode.app/Contents/Developer/Toolchains/XcodeDefault.xctoolchain/usr/bin/../include/c++/v1/deque:336:0
	movq	-464(%rbp), %rax        ## 8-byte Reload
	movq	8(%rax), %rcx
	movq	(%rax), %rdx
	movq	(%rdx), %rdx
	subq	%rdx, %rcx
	sarq	$2, %rcx
	movq	-16(%rbp), %rdx
	addq	%rcx, %rdx
	movq	%rdx, -16(%rbp)
	.loc	3 337 0                 ## /Applications/Xcode.app/Contents/Developer/Toolchains/XcodeDefault.xctoolchain/usr/bin/../include/c++/v1/deque:337:0
	cmpq	$0, -16(%rbp)
	jle	LBB7_7
## BB#6:
	movabsq	$1024, %rax             ## imm = 0x400
	.loc	3 339 0                 ## /Applications/Xcode.app/Contents/Developer/Toolchains/XcodeDefault.xctoolchain/usr/bin/../include/c++/v1/deque:339:0
	movq	-16(%rbp), %rcx
	movq	%rax, -472(%rbp)        ## 8-byte Spill
	movq	%rcx, %rax
	cqto
	movq	-472(%rbp), %rcx        ## 8-byte Reload
	idivq	%rcx
	movq	-464(%rbp), %rdx        ## 8-byte Reload
	movq	(%rdx), %rsi
	shlq	$3, %rax
	addq	%rax, %rsi
	movq	%rsi, (%rdx)
	.loc	3 340 0                 ## /Applications/Xcode.app/Contents/Developer/Toolchains/XcodeDefault.xctoolchain/usr/bin/../include/c++/v1/deque:340:0
	movq	(%rdx), %rax
	movq	(%rax), %rax
	movq	-16(%rbp), %rsi
	movq	%rax, -480(%rbp)        ## 8-byte Spill
	movq	%rsi, %rax
	cqto
	idivq	%rcx
	shlq	$2, %rdx
	movq	-480(%rbp), %rax        ## 8-byte Reload
	addq	%rdx, %rax
	movq	-464(%rbp), %rdx        ## 8-byte Reload
	movq	%rax, 8(%rdx)
	.loc	3 341 0                 ## /Applications/Xcode.app/Contents/Developer/Toolchains/XcodeDefault.xctoolchain/usr/bin/../include/c++/v1/deque:341:0
	jmp	LBB7_8
LBB7_7:
	movabsq	$1023, %rax             ## imm = 0x3FF
	movabsq	$1024, %rcx             ## imm = 0x400
	movabsq	$0, %rdx
	.loc	3 344 0                 ## /Applications/Xcode.app/Contents/Developer/Toolchains/XcodeDefault.xctoolchain/usr/bin/../include/c++/v1/deque:344:0
	movq	%rax, %rsi
	subq	-16(%rbp), %rsi
	movq	%rsi, -24(%rbp)
	.loc	3 345 0                 ## /Applications/Xcode.app/Contents/Developer/Toolchains/XcodeDefault.xctoolchain/usr/bin/../include/c++/v1/deque:345:0
	movq	-24(%rbp), %rsi
	movq	%rax, -488(%rbp)        ## 8-byte Spill
	movq	%rsi, %rax
	movq	%rdx, -496(%rbp)        ## 8-byte Spill
	cqto
	idivq	%rcx
	movq	-464(%rbp), %rdx        ## 8-byte Reload
	movq	(%rdx), %rsi
	movq	-496(%rbp), %rdi        ## 8-byte Reload
	subq	%rax, %rdi
	shlq	$3, %rdi
	addq	%rdi, %rsi
	movq	%rsi, (%rdx)
	.loc	3 346 0                 ## /Applications/Xcode.app/Contents/Developer/Toolchains/XcodeDefault.xctoolchain/usr/bin/../include/c++/v1/deque:346:0
	movq	(%rdx), %rax
	movq	(%rax), %rax
	movq	-24(%rbp), %rsi
	movq	%rax, -504(%rbp)        ## 8-byte Spill
	movq	%rsi, %rax
	cqto
	idivq	%rcx
	movq	-488(%rbp), %rax        ## 8-byte Reload
	subq	%rdx, %rax
	shlq	$2, %rax
	movq	-504(%rbp), %rcx        ## 8-byte Reload
	addq	%rax, %rcx
	movq	-464(%rbp), %rax        ## 8-byte Reload
	movq	%rcx, 8(%rax)
LBB7_8:
	.loc	3 348 0                 ## /Applications/Xcode.app/Contents/Developer/Toolchains/XcodeDefault.xctoolchain/usr/bin/../include/c++/v1/deque:348:0
	jmp	LBB7_9
Ltmp197:
LBB7_9:                                 ## %_ZNKSt3__116__deque_iteratorIiPKiRS1_PKS2_lLl1024EEplEl.exit
	.loc	3 361 0                 ## /Applications/Xcode.app/Contents/Developer/Toolchains/XcodeDefault.xctoolchain/usr/bin/../include/c++/v1/deque:361:0
	movq	-40(%rbp), %rax
	movq	-32(%rbp), %rcx
Ltmp198:
	.loc	3 1607 0                ## /Applications/Xcode.app/Contents/Developer/Toolchains/XcodeDefault.xctoolchain/usr/bin/../include/c++/v1/deque:1607:0
	movq	%rax, -272(%rbp)
	movq	%rcx, -264(%rbp)
	.loc	3 1608 0                ## /Applications/Xcode.app/Contents/Developer/Toolchains/XcodeDefault.xctoolchain/usr/bin/../include/c++/v1/deque:1608:0
	movq	-224(%rbp), %rax
	movq	%rax, -288(%rbp)
	movq	-216(%rbp), %rax
	movq	%rax, -280(%rbp)
	movq	-272(%rbp), %rax
	movq	%rax, -304(%rbp)
	movq	-264(%rbp), %rax
	movq	%rax, -296(%rbp)
	movq	-456(%rbp), %rax        ## 8-byte Reload
	movq	%rax, %rdi
	callq	__ZNSt3__112__deque_baseIiNS_9allocatorIiEEE5beginEv
	movq	%rax, -320(%rbp)
	movq	%rdx, -312(%rbp)
	movq	-288(%rbp), %rdi
	movq	-280(%rbp), %rsi
	movq	-304(%rbp), %rdx
	movq	-296(%rbp), %rcx
	movq	-320(%rbp), %r8
	movq	-312(%rbp), %r9
	callq	__ZNSt3__14copyIiPKiRS1_PKS2_lLl1024EiPiRiPS6_lLl1024EEENS_16__deque_iteratorIT5_T6_T7_T8_T9_XT10_EEENS9_IT_T0_T1_T2_T3_XT4_EEESL_SF_
	movabsq	$0, %r9
	movq	%rax, -336(%rbp)
	movq	%rdx, -328(%rbp)
	.loc	3 1609 0                ## /Applications/Xcode.app/Contents/Developer/Toolchains/XcodeDefault.xctoolchain/usr/bin/../include/c++/v1/deque:1609:0
	movq	-272(%rbp), %rax
	movq	%rax, -352(%rbp)
	movq	-264(%rbp), %rax
	movq	%rax, -344(%rbp)
	movq	-240(%rbp), %rax
	movq	%rax, -368(%rbp)
	movq	-232(%rbp), %rax
	movq	%rax, -360(%rbp)
	movq	-352(%rbp), %rsi
	movq	-344(%rbp), %rdx
	movq	-368(%rbp), %rcx
	movq	-360(%rbp), %r8
	movq	-456(%rbp), %rdi        ## 8-byte Reload
	callq	__ZNSt3__15dequeIiNS_9allocatorIiEEE8__appendINS_16__deque_iteratorIiPKiRS6_PKS7_lLl1024EEEEEvT_SC_PNS_9enable_ifIXsr21__is_forward_iteratorISC_EE5valueEvE4typeE
	.loc	3 1610 0                ## /Applications/Xcode.app/Contents/Developer/Toolchains/XcodeDefault.xctoolchain/usr/bin/../include/c++/v1/deque:1610:0
	jmp	LBB7_11
Ltmp199:
LBB7_10:
	.loc	3 1612 0                ## /Applications/Xcode.app/Contents/Developer/Toolchains/XcodeDefault.xctoolchain/usr/bin/../include/c++/v1/deque:1612:0
	movq	-224(%rbp), %rax
	movq	%rax, -416(%rbp)
	movq	-216(%rbp), %rax
	movq	%rax, -408(%rbp)
	movq	-240(%rbp), %rax
	movq	%rax, -432(%rbp)
	movq	-232(%rbp), %rax
	movq	%rax, -424(%rbp)
	movq	-456(%rbp), %rax        ## 8-byte Reload
	movq	%rax, %rdi
	callq	__ZNSt3__112__deque_baseIiNS_9allocatorIiEEE5beginEv
	movq	%rax, -448(%rbp)
	movq	%rdx, -440(%rbp)
	movq	-416(%rbp), %rdi
	movq	-408(%rbp), %rsi
	movq	-432(%rbp), %rdx
	movq	-424(%rbp), %rcx
	movq	-448(%rbp), %r8
	movq	-440(%rbp), %r9
	callq	__ZNSt3__14copyIiPKiRS1_PKS2_lLl1024EiPiRiPS6_lLl1024EEENS_16__deque_iteratorIT5_T6_T7_T8_T9_XT10_EEENS9_IT_T0_T1_T2_T3_XT4_EEESL_SF_
	leaq	-400(%rbp), %rcx
	leaq	-384(%rbp), %rsi
	movq	%rax, -400(%rbp)
	movq	%rdx, -392(%rbp)
	movq	%rsi, -112(%rbp)
	movq	%rcx, -120(%rbp)
	movq	$0, -128(%rbp)
	movq	-112(%rbp), %rax
	.loc	3 292 0                 ## /Applications/Xcode.app/Contents/Developer/Toolchains/XcodeDefault.xctoolchain/usr/bin/../include/c++/v1/deque:292:0
Ltmp200:
	movq	-128(%rbp), %rcx
	movq	-120(%rbp), %rdx
	movq	%rax, -88(%rbp)
	movq	%rdx, -96(%rbp)
	movq	%rcx, -104(%rbp)
	movq	-88(%rbp), %rax
	.loc	3 292 0                 ## /Applications/Xcode.app/Contents/Developer/Toolchains/XcodeDefault.xctoolchain/usr/bin/../include/c++/v1/deque:292:0
Ltmp201:
	movq	-96(%rbp), %rcx
	movq	(%rcx), %rcx
	movq	%rcx, (%rax)
	movq	-96(%rbp), %rcx
	movq	8(%rcx), %rcx
	movq	%rcx, 8(%rax)
Ltmp202:
	.loc	3 1612 0                ## /Applications/Xcode.app/Contents/Developer/Toolchains/XcodeDefault.xctoolchain/usr/bin/../include/c++/v1/deque:1612:0
	movq	-384(%rbp), %rsi
	movq	-376(%rbp), %rdx
	movq	-456(%rbp), %rdi        ## 8-byte Reload
	callq	__ZNSt3__15dequeIiNS_9allocatorIiEEE14__erase_to_endENS_16__deque_iteratorIiPKiRS5_PKS6_lLl1024EEE
Ltmp203:
LBB7_11:
	.loc	3 1613 0                ## /Applications/Xcode.app/Contents/Developer/Toolchains/XcodeDefault.xctoolchain/usr/bin/../include/c++/v1/deque:1613:0
	addq	$512, %rsp              ## imm = 0x200
	popq	%rbp
	retq
Ltmp204:
Lfunc_end7:
	.cfi_endproc

	.globl	__ZNKSt3__112__deque_baseIiNS_9allocatorIiEEE3endEv
	.weak_def_can_be_hidden	__ZNKSt3__112__deque_baseIiNS_9allocatorIiEEE3endEv
	.align	4, 0x90
__ZNKSt3__112__deque_baseIiNS_9allocatorIiEEE3endEv: ## @_ZNKSt3__112__deque_baseIiNS_9allocatorIiEEE3endEv
Lfunc_begin8:
	.loc	3 1084 0                ## /Applications/Xcode.app/Contents/Developer/Toolchains/XcodeDefault.xctoolchain/usr/bin/../include/c++/v1/deque:1084:0
	.cfi_startproc
## BB#0:
	pushq	%rbp
Ltmp207:
	.cfi_def_cfa_offset 16
Ltmp208:
	.cfi_offset %rbp, -16
	movq	%rsp, %rbp
Ltmp209:
	.cfi_def_cfa_register %rbp
	subq	$24, %rsp
	movq	%rdi, -112(%rbp)
	movq	-112(%rbp), %rdi
	movq	%rdi, -88(%rbp)
	movq	-88(%rbp), %rax
	.loc	3 949 0 prologue_end    ## /Applications/Xcode.app/Contents/Developer/Toolchains/XcodeDefault.xctoolchain/usr/bin/../include/c++/v1/deque:949:0
Ltmp210:
	addq	$40, %rax
	movq	%rax, -80(%rbp)
	movq	-80(%rbp), %rax
	movq	%rax, -72(%rbp)
	movq	-72(%rbp), %rax
Ltmp211:
	.loc	3 1085 0                ## /Applications/Xcode.app/Contents/Developer/Toolchains/XcodeDefault.xctoolchain/usr/bin/../include/c++/v1/deque:1085:0
	movq	(%rax), %rax
	addq	32(%rdi), %rax
	movq	%rax, -120(%rbp)
	movq	%rdi, -64(%rbp)
	movq	-64(%rbp), %rax
	.loc	9 77 0                  ## /Applications/Xcode.app/Contents/Developer/Toolchains/XcodeDefault.xctoolchain/usr/bin/../include/c++/v1/__split_buffer:77:0
Ltmp212:
	movq	8(%rax), %rax
Ltmp213:
	.loc	3 1086 0                ## /Applications/Xcode.app/Contents/Developer/Toolchains/XcodeDefault.xctoolchain/usr/bin/../include/c++/v1/deque:1086:0
	movq	-120(%rbp), %rcx
	shrq	$10, %rcx
	shlq	$3, %rcx
	addq	%rcx, %rax
	movq	%rax, -128(%rbp)
	.loc	3 1087 0                ## /Applications/Xcode.app/Contents/Developer/Toolchains/XcodeDefault.xctoolchain/usr/bin/../include/c++/v1/deque:1087:0
	movq	-128(%rbp), %rax
	movq	%rdi, -8(%rbp)
	movq	-8(%rbp), %rcx
	.loc	9 85 0                  ## /Applications/Xcode.app/Contents/Developer/Toolchains/XcodeDefault.xctoolchain/usr/bin/../include/c++/v1/__split_buffer:85:0
Ltmp214:
	movq	16(%rcx), %rdi
	cmpq	8(%rcx), %rdi
	sete	%dl
	movq	%rax, -136(%rbp)        ## 8-byte Spill
	movb	%dl, -137(%rbp)         ## 1-byte Spill
Ltmp215:
## BB#1:
	.loc	3 1087 0                ## /Applications/Xcode.app/Contents/Developer/Toolchains/XcodeDefault.xctoolchain/usr/bin/../include/c++/v1/deque:1087:0
	movb	-137(%rbp), %al         ## 1-byte Reload
	testb	$1, %al
	jne	LBB8_2
	jmp	LBB8_3
LBB8_2:
	movabsq	$0, %rax
	movq	%rax, -152(%rbp)        ## 8-byte Spill
	jmp	LBB8_4
LBB8_3:
	movq	-128(%rbp), %rax
	movq	(%rax), %rax
	movq	-120(%rbp), %rcx
	andq	$1023, %rcx             ## imm = 0x3FF
	shlq	$2, %rcx
	addq	%rcx, %rax
	movq	%rax, -152(%rbp)        ## 8-byte Spill
LBB8_4:
	movq	-152(%rbp), %rax        ## 8-byte Reload
	leaq	-104(%rbp), %rcx
	movq	%rcx, -40(%rbp)
	movq	-136(%rbp), %rcx        ## 8-byte Reload
	movq	%rcx, -48(%rbp)
	movq	%rax, -56(%rbp)
	movq	-40(%rbp), %rdx
	.loc	3 415 0                 ## /Applications/Xcode.app/Contents/Developer/Toolchains/XcodeDefault.xctoolchain/usr/bin/../include/c++/v1/deque:415:0
Ltmp216:
	movq	-48(%rbp), %rsi
	movq	%rdx, -16(%rbp)
	movq	%rsi, -24(%rbp)
	movq	%rax, -32(%rbp)
	movq	-16(%rbp), %rax
	.loc	3 415 0                 ## /Applications/Xcode.app/Contents/Developer/Toolchains/XcodeDefault.xctoolchain/usr/bin/../include/c++/v1/deque:415:0
Ltmp217:
	movq	-24(%rbp), %rdx
	movq	%rdx, (%rax)
	movq	-32(%rbp), %rdx
	movq	%rdx, 8(%rax)
Ltmp218:
	.loc	3 1087 0                ## /Applications/Xcode.app/Contents/Developer/Toolchains/XcodeDefault.xctoolchain/usr/bin/../include/c++/v1/deque:1087:0
	movq	-104(%rbp), %rax
	movq	-96(%rbp), %rdx
	addq	$24, %rsp
	popq	%rbp
	retq
Ltmp219:
Lfunc_end8:
	.cfi_endproc

	.private_extern	___clang_call_terminate
	.globl	___clang_call_terminate
	.weak_def_can_be_hidden	___clang_call_terminate
	.align	4, 0x90
___clang_call_terminate:                ## @__clang_call_terminate
	.cfi_startproc
## BB#0:
	pushq	%rbp
Ltmp222:
	.cfi_def_cfa_offset 16
Ltmp223:
	.cfi_offset %rbp, -16
	movq	%rsp, %rbp
Ltmp224:
	.cfi_def_cfa_register %rbp
	subq	$16, %rsp
	callq	___cxa_begin_catch
	movq	%rax, -8(%rbp)          ## 8-byte Spill
	callq	__ZSt9terminatev
	.cfi_endproc

	.globl	__ZNKSt3__112__deque_baseIiNS_9allocatorIiEEE5beginEv
	.weak_def_can_be_hidden	__ZNKSt3__112__deque_baseIiNS_9allocatorIiEEE5beginEv
	.align	4, 0x90
__ZNKSt3__112__deque_baseIiNS_9allocatorIiEEE5beginEv: ## @_ZNKSt3__112__deque_baseIiNS_9allocatorIiEEE5beginEv
Lfunc_begin10:
	.loc	3 1067 0                ## /Applications/Xcode.app/Contents/Developer/Toolchains/XcodeDefault.xctoolchain/usr/bin/../include/c++/v1/deque:1067:0
	.cfi_startproc
## BB#0:
	pushq	%rbp
Ltmp227:
	.cfi_def_cfa_offset 16
Ltmp228:
	.cfi_offset %rbp, -16
	movq	%rsp, %rbp
Ltmp229:
	.cfi_def_cfa_register %rbp
	movq	%rdi, -88(%rbp)
	movq	-88(%rbp), %rdi
	movq	%rdi, -64(%rbp)
	movq	-64(%rbp), %rax
	.loc	9 77 0 prologue_end     ## /Applications/Xcode.app/Contents/Developer/Toolchains/XcodeDefault.xctoolchain/usr/bin/../include/c++/v1/__split_buffer:77:0
Ltmp230:
	movq	8(%rax), %rax
Ltmp231:
	.loc	3 1068 0                ## /Applications/Xcode.app/Contents/Developer/Toolchains/XcodeDefault.xctoolchain/usr/bin/../include/c++/v1/deque:1068:0
	movq	32(%rdi), %rcx
	shrq	$10, %rcx
	shlq	$3, %rcx
	addq	%rcx, %rax
	movq	%rax, -96(%rbp)
	.loc	3 1069 0                ## /Applications/Xcode.app/Contents/Developer/Toolchains/XcodeDefault.xctoolchain/usr/bin/../include/c++/v1/deque:1069:0
	movq	-96(%rbp), %rax
	movq	%rdi, -56(%rbp)
	movq	-56(%rbp), %rcx
	.loc	9 85 0                  ## /Applications/Xcode.app/Contents/Developer/Toolchains/XcodeDefault.xctoolchain/usr/bin/../include/c++/v1/__split_buffer:85:0
Ltmp232:
	movq	16(%rcx), %rdx
	cmpq	8(%rcx), %rdx
	sete	%sil
	movq	%rdi, -104(%rbp)        ## 8-byte Spill
	movq	%rax, -112(%rbp)        ## 8-byte Spill
	movb	%sil, -113(%rbp)        ## 1-byte Spill
Ltmp233:
## BB#1:
	.loc	3 1069 0                ## /Applications/Xcode.app/Contents/Developer/Toolchains/XcodeDefault.xctoolchain/usr/bin/../include/c++/v1/deque:1069:0
	movb	-113(%rbp), %al         ## 1-byte Reload
	testb	$1, %al
	jne	LBB10_2
	jmp	LBB10_3
LBB10_2:
	movabsq	$0, %rax
	movq	%rax, -128(%rbp)        ## 8-byte Spill
	jmp	LBB10_4
LBB10_3:
	movq	-96(%rbp), %rax
	movq	(%rax), %rax
	movq	-104(%rbp), %rcx        ## 8-byte Reload
	movq	32(%rcx), %rdx
	andq	$1023, %rdx             ## imm = 0x3FF
	shlq	$2, %rdx
	addq	%rdx, %rax
	movq	%rax, -128(%rbp)        ## 8-byte Spill
LBB10_4:
	movq	-128(%rbp), %rax        ## 8-byte Reload
	leaq	-80(%rbp), %rcx
	movq	%rcx, -32(%rbp)
	movq	-112(%rbp), %rcx        ## 8-byte Reload
	movq	%rcx, -40(%rbp)
	movq	%rax, -48(%rbp)
	movq	-32(%rbp), %rdx
	.loc	3 415 0                 ## /Applications/Xcode.app/Contents/Developer/Toolchains/XcodeDefault.xctoolchain/usr/bin/../include/c++/v1/deque:415:0
Ltmp234:
	movq	-40(%rbp), %rsi
	movq	%rdx, -8(%rbp)
	movq	%rsi, -16(%rbp)
	movq	%rax, -24(%rbp)
	movq	-8(%rbp), %rax
	.loc	3 415 0                 ## /Applications/Xcode.app/Contents/Developer/Toolchains/XcodeDefault.xctoolchain/usr/bin/../include/c++/v1/deque:415:0
Ltmp235:
	movq	-16(%rbp), %rdx
	movq	%rdx, (%rax)
	movq	-24(%rbp), %rdx
	movq	%rdx, 8(%rax)
Ltmp236:
	.loc	3 1069 0                ## /Applications/Xcode.app/Contents/Developer/Toolchains/XcodeDefault.xctoolchain/usr/bin/../include/c++/v1/deque:1069:0
	movq	-80(%rbp), %rax
	movq	-72(%rbp), %rdx
	popq	%rbp
	retq
Ltmp237:
Lfunc_end10:
	.cfi_endproc

	.globl	__ZNSt3__14copyIiPKiRS1_PKS2_lLl1024EiPiRiPS6_lLl1024EEENS_16__deque_iteratorIT5_T6_T7_T8_T9_XT10_EEENS9_IT_T0_T1_T2_T3_XT4_EEESL_SF_
	.weak_def_can_be_hidden	__ZNSt3__14copyIiPKiRS1_PKS2_lLl1024EiPiRiPS6_lLl1024EEENS_16__deque_iteratorIT5_T6_T7_T8_T9_XT10_EEENS9_IT_T0_T1_T2_T3_XT4_EEESL_SF_
	.align	4, 0x90
__ZNSt3__14copyIiPKiRS1_PKS2_lLl1024EiPiRiPS6_lLl1024EEENS_16__deque_iteratorIT5_T6_T7_T8_T9_XT10_EEENS9_IT_T0_T1_T2_T3_XT4_EEESL_SF_: ## @_ZNSt3__14copyIiPKiRS1_PKS2_lLl1024EiPiRiPS6_lLl1024EEENS_16__deque_iteratorIT5_T6_T7_T8_T9_XT10_EEENS9_IT_T0_T1_T2_T3_XT4_EEESL_SF_
Lfunc_begin11:
	.loc	3 587 0                 ## /Applications/Xcode.app/Contents/Developer/Toolchains/XcodeDefault.xctoolchain/usr/bin/../include/c++/v1/deque:587:0
	.cfi_startproc
## BB#0:
	pushq	%rbp
Ltmp240:
	.cfi_def_cfa_offset 16
Ltmp241:
	.cfi_offset %rbp, -16
	movq	%rsp, %rbp
Ltmp242:
	.cfi_def_cfa_register %rbp
	subq	$256, %rsp              ## imm = 0x100
	leaq	-112(%rbp), %rax
	leaq	-128(%rbp), %r10
	movq	%rdi, -112(%rbp)
	movq	%rsi, -104(%rbp)
	movq	%rdx, -128(%rbp)
	movq	%rcx, -120(%rbp)
	movq	%r8, -144(%rbp)
	movq	%r9, -136(%rbp)
	##DEBUG_VALUE: copy<int, const int *, const int &, const int *const *, long, 1024, int, int *, int &, int **, long, 1024>:__f <- RAX
	##DEBUG_VALUE: copy<int, const int *, const int &, const int *const *, long, 1024, int, int *, int &, int **, long, 1024>:__l <- R10
	movq	%r10, -72(%rbp)
	movq	%rax, -80(%rbp)
	.loc	3 378 0 prologue_end    ## /Applications/Xcode.app/Contents/Developer/Toolchains/XcodeDefault.xctoolchain/usr/bin/../include/c++/v1/deque:378:0
Ltmp243:
	movq	-72(%rbp), %rax
Ltmp244:
	movq	-80(%rbp), %rcx
	movq	%rax, -48(%rbp)
	movq	%rcx, -56(%rbp)
	.loc	3 394 0                 ## /Applications/Xcode.app/Contents/Developer/Toolchains/XcodeDefault.xctoolchain/usr/bin/../include/c++/v1/deque:394:0
Ltmp245:
	movq	-48(%rbp), %rax
	movq	-56(%rbp), %rcx
	movq	%rax, -32(%rbp)
	movq	%rcx, -40(%rbp)
	.loc	3 390 0                 ## /Applications/Xcode.app/Contents/Developer/Toolchains/XcodeDefault.xctoolchain/usr/bin/../include/c++/v1/deque:390:0
Ltmp246:
	movq	-32(%rbp), %rax
	movq	8(%rax), %rax
	movq	-40(%rbp), %rcx
	cmpq	8(%rcx), %rax
	sete	%r11b
Ltmp247:
	.loc	3 394 0                 ## /Applications/Xcode.app/Contents/Developer/Toolchains/XcodeDefault.xctoolchain/usr/bin/../include/c++/v1/deque:394:0
	xorb	$1, %r11b
Ltmp248:
	.loc	3 378 0                 ## /Applications/Xcode.app/Contents/Developer/Toolchains/XcodeDefault.xctoolchain/usr/bin/../include/c++/v1/deque:378:0
	testb	$1, %r11b
	jne	LBB11_1
	jmp	LBB11_2
Ltmp249:
LBB11_1:
	.loc	3 379 0                 ## /Applications/Xcode.app/Contents/Developer/Toolchains/XcodeDefault.xctoolchain/usr/bin/../include/c++/v1/deque:379:0
	movq	-72(%rbp), %rax
	movq	(%rax), %rax
	movq	-80(%rbp), %rcx
	movq	(%rcx), %rcx
	subq	%rcx, %rax
	sarq	$3, %rax
	shlq	$10, %rax
	movq	-72(%rbp), %rcx
	movq	8(%rcx), %rcx
	movq	-72(%rbp), %rdx
	movq	(%rdx), %rdx
	movq	(%rdx), %rdx
	subq	%rdx, %rcx
	sarq	$2, %rcx
	addq	%rcx, %rax
	movq	-80(%rbp), %rcx
	movq	8(%rcx), %rcx
	movq	-80(%rbp), %rdx
	movq	(%rdx), %rdx
	movq	(%rdx), %rdx
	subq	%rdx, %rcx
	sarq	$2, %rcx
	subq	%rcx, %rax
	movq	%rax, -64(%rbp)
	jmp	LBB11_3
LBB11_2:
	.loc	3 382 0                 ## /Applications/Xcode.app/Contents/Developer/Toolchains/XcodeDefault.xctoolchain/usr/bin/../include/c++/v1/deque:382:0
	movq	$0, -64(%rbp)
LBB11_3:                                ## %_ZNSt3__1miERKNS_16__deque_iteratorIiPKiRS1_PKS2_lLl1024EEES8_.exit
	.loc	3 383 0                 ## /Applications/Xcode.app/Contents/Developer/Toolchains/XcodeDefault.xctoolchain/usr/bin/../include/c++/v1/deque:383:0
	movq	-64(%rbp), %rax
Ltmp250:
	.loc	3 590 0                 ## /Applications/Xcode.app/Contents/Developer/Toolchains/XcodeDefault.xctoolchain/usr/bin/../include/c++/v1/deque:590:0
	movq	%rax, -152(%rbp)
LBB11_4:                                ## =>This Inner Loop Header: Depth=1
	.loc	3 591 0                 ## /Applications/Xcode.app/Contents/Developer/Toolchains/XcodeDefault.xctoolchain/usr/bin/../include/c++/v1/deque:591:0
	cmpq	$0, -152(%rbp)
	jle	LBB11_13
## BB#5:                                ##   in Loop: Header=BB11_4 Depth=1
	.loc	3 593 0                 ## /Applications/Xcode.app/Contents/Developer/Toolchains/XcodeDefault.xctoolchain/usr/bin/../include/c++/v1/deque:593:0
Ltmp251:
	movq	-104(%rbp), %rax
	movq	%rax, -160(%rbp)
	.loc	3 594 0                 ## /Applications/Xcode.app/Contents/Developer/Toolchains/XcodeDefault.xctoolchain/usr/bin/../include/c++/v1/deque:594:0
	movq	-112(%rbp), %rax
	movq	(%rax), %rax
	addq	$4096, %rax             ## imm = 0x1000
	movq	%rax, -168(%rbp)
	.loc	3 595 0                 ## /Applications/Xcode.app/Contents/Developer/Toolchains/XcodeDefault.xctoolchain/usr/bin/../include/c++/v1/deque:595:0
	movq	-168(%rbp), %rax
	movq	-160(%rbp), %rcx
	subq	%rcx, %rax
	sarq	$2, %rax
	movq	%rax, -176(%rbp)
	.loc	3 596 0                 ## /Applications/Xcode.app/Contents/Developer/Toolchains/XcodeDefault.xctoolchain/usr/bin/../include/c++/v1/deque:596:0
Ltmp252:
	movq	-176(%rbp), %rax
	cmpq	-152(%rbp), %rax
	jle	LBB11_7
## BB#6:                                ##   in Loop: Header=BB11_4 Depth=1
	.loc	3 598 0                 ## /Applications/Xcode.app/Contents/Developer/Toolchains/XcodeDefault.xctoolchain/usr/bin/../include/c++/v1/deque:598:0
Ltmp253:
	movq	-152(%rbp), %rax
	movq	%rax, -176(%rbp)
	.loc	3 599 0                 ## /Applications/Xcode.app/Contents/Developer/Toolchains/XcodeDefault.xctoolchain/usr/bin/../include/c++/v1/deque:599:0
	movq	-160(%rbp), %rax
	movq	-176(%rbp), %rcx
	shlq	$2, %rcx
	addq	%rcx, %rax
	movq	%rax, -168(%rbp)
Ltmp254:
LBB11_7:                                ##   in Loop: Header=BB11_4 Depth=1
	movabsq	$0, %r8
	.loc	3 601 0                 ## /Applications/Xcode.app/Contents/Developer/Toolchains/XcodeDefault.xctoolchain/usr/bin/../include/c++/v1/deque:601:0
	movq	-160(%rbp), %rdi
	movq	-168(%rbp), %rsi
	movq	-144(%rbp), %rax
	movq	%rax, -208(%rbp)
	movq	-136(%rbp), %rax
	movq	%rax, -200(%rbp)
	movq	-208(%rbp), %rdx
	movq	-200(%rbp), %rcx
	callq	__ZNSt3__14copyIPKiiPiRiPS3_lLl1024EEENS_16__deque_iteratorIT0_T1_T2_T3_T4_XT5_EEET_SD_SC_PNS_9enable_ifIXsr27__is_random_access_iteratorISD_EE5valueEvE4typeE
	leaq	-112(%rbp), %rcx
	movq	%rax, -192(%rbp)
	movq	%rdx, -184(%rbp)
	movq	-192(%rbp), %rax
	movq	%rax, -144(%rbp)
	movq	-184(%rbp), %rax
	movq	%rax, -136(%rbp)
	.loc	3 602 0                 ## /Applications/Xcode.app/Contents/Developer/Toolchains/XcodeDefault.xctoolchain/usr/bin/../include/c++/v1/deque:602:0
	movq	-176(%rbp), %rax
	movq	-152(%rbp), %rdx
	subq	%rax, %rdx
	movq	%rdx, -152(%rbp)
	.loc	3 603 0                 ## /Applications/Xcode.app/Contents/Developer/Toolchains/XcodeDefault.xctoolchain/usr/bin/../include/c++/v1/deque:603:0
	movq	-176(%rbp), %rax
	movq	%rcx, -8(%rbp)
	movq	%rax, -16(%rbp)
	movq	-8(%rbp), %rax
	.loc	3 334 0                 ## /Applications/Xcode.app/Contents/Developer/Toolchains/XcodeDefault.xctoolchain/usr/bin/../include/c++/v1/deque:334:0
Ltmp255:
	cmpq	$0, -16(%rbp)
	movq	%rax, -216(%rbp)        ## 8-byte Spill
	je	LBB11_12
## BB#8:                                ##   in Loop: Header=BB11_4 Depth=1
	.loc	3 336 0                 ## /Applications/Xcode.app/Contents/Developer/Toolchains/XcodeDefault.xctoolchain/usr/bin/../include/c++/v1/deque:336:0
	movq	-216(%rbp), %rax        ## 8-byte Reload
	movq	8(%rax), %rcx
	movq	(%rax), %rdx
	movq	(%rdx), %rdx
	subq	%rdx, %rcx
	sarq	$2, %rcx
	movq	-16(%rbp), %rdx
	addq	%rcx, %rdx
	movq	%rdx, -16(%rbp)
	.loc	3 337 0                 ## /Applications/Xcode.app/Contents/Developer/Toolchains/XcodeDefault.xctoolchain/usr/bin/../include/c++/v1/deque:337:0
	cmpq	$0, -16(%rbp)
	jle	LBB11_10
## BB#9:                                ##   in Loop: Header=BB11_4 Depth=1
	movabsq	$1024, %rax             ## imm = 0x400
	.loc	3 339 0                 ## /Applications/Xcode.app/Contents/Developer/Toolchains/XcodeDefault.xctoolchain/usr/bin/../include/c++/v1/deque:339:0
	movq	-16(%rbp), %rcx
	movq	%rax, -224(%rbp)        ## 8-byte Spill
	movq	%rcx, %rax
	cqto
	movq	-224(%rbp), %rcx        ## 8-byte Reload
	idivq	%rcx
	movq	-216(%rbp), %rdx        ## 8-byte Reload
	movq	(%rdx), %rsi
	shlq	$3, %rax
	addq	%rax, %rsi
	movq	%rsi, (%rdx)
	.loc	3 340 0                 ## /Applications/Xcode.app/Contents/Developer/Toolchains/XcodeDefault.xctoolchain/usr/bin/../include/c++/v1/deque:340:0
	movq	(%rdx), %rax
	movq	(%rax), %rax
	movq	-16(%rbp), %rsi
	movq	%rax, -232(%rbp)        ## 8-byte Spill
	movq	%rsi, %rax
	cqto
	idivq	%rcx
	shlq	$2, %rdx
	movq	-232(%rbp), %rax        ## 8-byte Reload
	addq	%rdx, %rax
	movq	-216(%rbp), %rdx        ## 8-byte Reload
	movq	%rax, 8(%rdx)
	.loc	3 341 0                 ## /Applications/Xcode.app/Contents/Developer/Toolchains/XcodeDefault.xctoolchain/usr/bin/../include/c++/v1/deque:341:0
	jmp	LBB11_11
LBB11_10:                               ##   in Loop: Header=BB11_4 Depth=1
	movabsq	$1023, %rax             ## imm = 0x3FF
	movabsq	$1024, %rcx             ## imm = 0x400
	movabsq	$0, %rdx
	.loc	3 344 0                 ## /Applications/Xcode.app/Contents/Developer/Toolchains/XcodeDefault.xctoolchain/usr/bin/../include/c++/v1/deque:344:0
	movq	%rax, %rsi
	subq	-16(%rbp), %rsi
	movq	%rsi, -24(%rbp)
	.loc	3 345 0                 ## /Applications/Xcode.app/Contents/Developer/Toolchains/XcodeDefault.xctoolchain/usr/bin/../include/c++/v1/deque:345:0
	movq	-24(%rbp), %rsi
	movq	%rax, -240(%rbp)        ## 8-byte Spill
	movq	%rsi, %rax
	movq	%rdx, -248(%rbp)        ## 8-byte Spill
	cqto
	idivq	%rcx
	movq	-216(%rbp), %rdx        ## 8-byte Reload
	movq	(%rdx), %rsi
	movq	-248(%rbp), %rdi        ## 8-byte Reload
	subq	%rax, %rdi
	shlq	$3, %rdi
	addq	%rdi, %rsi
	movq	%rsi, (%rdx)
	.loc	3 346 0                 ## /Applications/Xcode.app/Contents/Developer/Toolchains/XcodeDefault.xctoolchain/usr/bin/../include/c++/v1/deque:346:0
	movq	(%rdx), %rax
	movq	(%rax), %rax
	movq	-24(%rbp), %rsi
	movq	%rax, -256(%rbp)        ## 8-byte Spill
	movq	%rsi, %rax
	cqto
	idivq	%rcx
	movq	-240(%rbp), %rax        ## 8-byte Reload
	subq	%rdx, %rax
	shlq	$2, %rax
	movq	-256(%rbp), %rcx        ## 8-byte Reload
	addq	%rax, %rcx
	movq	-216(%rbp), %rax        ## 8-byte Reload
	movq	%rcx, 8(%rax)
LBB11_11:                               ##   in Loop: Header=BB11_4 Depth=1
	.loc	3 348 0                 ## /Applications/Xcode.app/Contents/Developer/Toolchains/XcodeDefault.xctoolchain/usr/bin/../include/c++/v1/deque:348:0
	jmp	LBB11_12
Ltmp256:
LBB11_12:                               ## %_ZNSt3__116__deque_iteratorIiPKiRS1_PKS2_lLl1024EEpLEl.exit
                                        ##   in Loop: Header=BB11_4 Depth=1
	.loc	3 604 0                 ## /Applications/Xcode.app/Contents/Developer/Toolchains/XcodeDefault.xctoolchain/usr/bin/../include/c++/v1/deque:604:0
	jmp	LBB11_4
Ltmp257:
LBB11_13:
	.loc	3 605 0                 ## /Applications/Xcode.app/Contents/Developer/Toolchains/XcodeDefault.xctoolchain/usr/bin/../include/c++/v1/deque:605:0
	movq	-144(%rbp), %rax
	movq	-136(%rbp), %rcx
	movq	%rcx, -88(%rbp)
	movq	%rax, -96(%rbp)
	movq	-96(%rbp), %rax
	movq	-88(%rbp), %rdx
	addq	$256, %rsp              ## imm = 0x100
	popq	%rbp
	retq
Ltmp258:
Lfunc_end11:
	.cfi_endproc

	.globl	__ZNSt3__112__deque_baseIiNS_9allocatorIiEEE5beginEv
	.weak_def_can_be_hidden	__ZNSt3__112__deque_baseIiNS_9allocatorIiEEE5beginEv
	.align	4, 0x90
__ZNSt3__112__deque_baseIiNS_9allocatorIiEEE5beginEv: ## @_ZNSt3__112__deque_baseIiNS_9allocatorIiEEE5beginEv
Lfunc_begin12:
	.loc	3 1059 0                ## /Applications/Xcode.app/Contents/Developer/Toolchains/XcodeDefault.xctoolchain/usr/bin/../include/c++/v1/deque:1059:0
	.cfi_startproc
## BB#0:
	pushq	%rbp
Ltmp261:
	.cfi_def_cfa_offset 16
Ltmp262:
	.cfi_offset %rbp, -16
	movq	%rsp, %rbp
Ltmp263:
	.cfi_def_cfa_register %rbp
	movq	%rdi, -88(%rbp)
	movq	-88(%rbp), %rdi
	movq	%rdi, -64(%rbp)
	movq	-64(%rbp), %rax
	.loc	9 76 0 prologue_end     ## /Applications/Xcode.app/Contents/Developer/Toolchains/XcodeDefault.xctoolchain/usr/bin/../include/c++/v1/__split_buffer:76:0
Ltmp264:
	movq	8(%rax), %rax
Ltmp265:
	.loc	3 1060 0                ## /Applications/Xcode.app/Contents/Developer/Toolchains/XcodeDefault.xctoolchain/usr/bin/../include/c++/v1/deque:1060:0
	movq	32(%rdi), %rcx
	shrq	$10, %rcx
	shlq	$3, %rcx
	addq	%rcx, %rax
	movq	%rax, -96(%rbp)
	.loc	3 1061 0                ## /Applications/Xcode.app/Contents/Developer/Toolchains/XcodeDefault.xctoolchain/usr/bin/../include/c++/v1/deque:1061:0
	movq	-96(%rbp), %rax
	movq	%rdi, -56(%rbp)
	movq	-56(%rbp), %rcx
	.loc	9 85 0                  ## /Applications/Xcode.app/Contents/Developer/Toolchains/XcodeDefault.xctoolchain/usr/bin/../include/c++/v1/__split_buffer:85:0
Ltmp266:
	movq	16(%rcx), %rdx
	cmpq	8(%rcx), %rdx
	sete	%sil
	movq	%rdi, -104(%rbp)        ## 8-byte Spill
	movq	%rax, -112(%rbp)        ## 8-byte Spill
	movb	%sil, -113(%rbp)        ## 1-byte Spill
Ltmp267:
## BB#1:
	.loc	3 1061 0                ## /Applications/Xcode.app/Contents/Developer/Toolchains/XcodeDefault.xctoolchain/usr/bin/../include/c++/v1/deque:1061:0
	movb	-113(%rbp), %al         ## 1-byte Reload
	testb	$1, %al
	jne	LBB12_2
	jmp	LBB12_3
LBB12_2:
	movabsq	$0, %rax
	movq	%rax, -128(%rbp)        ## 8-byte Spill
	jmp	LBB12_4
LBB12_3:
	movq	-96(%rbp), %rax
	movq	(%rax), %rax
	movq	-104(%rbp), %rcx        ## 8-byte Reload
	movq	32(%rcx), %rdx
	andq	$1023, %rdx             ## imm = 0x3FF
	shlq	$2, %rdx
	addq	%rdx, %rax
	movq	%rax, -128(%rbp)        ## 8-byte Spill
LBB12_4:
	movq	-128(%rbp), %rax        ## 8-byte Reload
	leaq	-80(%rbp), %rcx
	movq	%rcx, -32(%rbp)
	movq	-112(%rbp), %rcx        ## 8-byte Reload
	movq	%rcx, -40(%rbp)
	movq	%rax, -48(%rbp)
	movq	-32(%rbp), %rdx
	.loc	3 415 0                 ## /Applications/Xcode.app/Contents/Developer/Toolchains/XcodeDefault.xctoolchain/usr/bin/../include/c++/v1/deque:415:0
Ltmp268:
	movq	-40(%rbp), %rsi
	movq	%rdx, -8(%rbp)
	movq	%rsi, -16(%rbp)
	movq	%rax, -24(%rbp)
	movq	-8(%rbp), %rax
	.loc	3 415 0                 ## /Applications/Xcode.app/Contents/Developer/Toolchains/XcodeDefault.xctoolchain/usr/bin/../include/c++/v1/deque:415:0
Ltmp269:
	movq	-16(%rbp), %rdx
	movq	%rdx, (%rax)
	movq	-24(%rbp), %rdx
	movq	%rdx, 8(%rax)
Ltmp270:
	.loc	3 1061 0                ## /Applications/Xcode.app/Contents/Developer/Toolchains/XcodeDefault.xctoolchain/usr/bin/../include/c++/v1/deque:1061:0
	movq	-80(%rbp), %rax
	movq	-72(%rbp), %rdx
	popq	%rbp
	retq
Ltmp271:
Lfunc_end12:
	.cfi_endproc

	.globl	__ZNSt3__15dequeIiNS_9allocatorIiEEE8__appendINS_16__deque_iteratorIiPKiRS6_PKS7_lLl1024EEEEEvT_SC_PNS_9enable_ifIXsr21__is_forward_iteratorISC_EE5valueEvE4typeE
	.weak_def_can_be_hidden	__ZNSt3__15dequeIiNS_9allocatorIiEEE8__appendINS_16__deque_iteratorIiPKiRS6_PKS7_lLl1024EEEEEvT_SC_PNS_9enable_ifIXsr21__is_forward_iteratorISC_EE5valueEvE4typeE
	.align	4, 0x90
__ZNSt3__15dequeIiNS_9allocatorIiEEE8__appendINS_16__deque_iteratorIiPKiRS6_PKS7_lLl1024EEEEEvT_SC_PNS_9enable_ifIXsr21__is_forward_iteratorISC_EE5valueEvE4typeE: ## @_ZNSt3__15dequeIiNS_9allocatorIiEEE8__appendINS_16__deque_iteratorIiPKiRS6_PKS7_lLl1024EEEEEvT_SC_PNS_9enable_ifIXsr21__is_forward_iteratorISC_EE5valueEvE4typeE
Lfunc_begin13:
	.loc	3 2196 0                ## /Applications/Xcode.app/Contents/Developer/Toolchains/XcodeDefault.xctoolchain/usr/bin/../include/c++/v1/deque:2196:0
	.cfi_startproc
## BB#0:
	pushq	%rbp
Ltmp274:
	.cfi_def_cfa_offset 16
Ltmp275:
	.cfi_offset %rbp, -16
	movq	%rsp, %rbp
Ltmp276:
	.cfi_def_cfa_register %rbp
	subq	$656, %rsp              ## imm = 0x290
	leaq	-368(%rbp), %rax
	leaq	-384(%rbp), %r10
	movq	%rsi, -480(%rbp)
	movq	%rdx, -472(%rbp)
	movq	%rcx, -496(%rbp)
	movq	%r8, -488(%rbp)
	movq	%rdi, -504(%rbp)
	movq	%r9, -512(%rbp)
	movq	-504(%rbp), %rcx
	.loc	3 2197 21 prologue_end  ## /Applications/Xcode.app/Contents/Developer/Toolchains/XcodeDefault.xctoolchain/usr/bin/../include/c++/v1/deque:2197:21
Ltmp277:
	movq	-480(%rbp), %rdx
	movq	%rdx, -536(%rbp)
	movq	-472(%rbp), %rdx
	movq	%rdx, -528(%rbp)
	movq	-496(%rbp), %rdx
	movq	%rdx, -552(%rbp)
	movq	-488(%rbp), %rdx
	movq	%rdx, -544(%rbp)
	movq	-536(%rbp), %rdx
	movq	-528(%rbp), %rsi
	movq	-552(%rbp), %rdi
	movq	-544(%rbp), %r8
	movq	%rdx, -408(%rbp)
	movq	%rsi, -400(%rbp)
	movq	%rdi, -424(%rbp)
	movq	%r8, -416(%rbp)
	.loc	14 503 12               ## /Applications/Xcode.app/Contents/Developer/Toolchains/XcodeDefault.xctoolchain/usr/bin/../include/c++/v1/iterator:503:12
Ltmp278:
	movq	-408(%rbp), %rdx
	movq	%rdx, -440(%rbp)
	movq	-400(%rbp), %rdx
	movq	%rdx, -432(%rbp)
	movq	-424(%rbp), %rdx
	movq	%rdx, -456(%rbp)
	movq	-416(%rbp), %rdx
	movq	%rdx, -448(%rbp)
	movq	-440(%rbp), %rdx
	movq	-432(%rbp), %rsi
	movq	-456(%rbp), %rdi
	movq	-448(%rbp), %r8
	movq	%rdx, -368(%rbp)
	movq	%rsi, -360(%rbp)
	movq	%rdi, -384(%rbp)
	movq	%r8, -376(%rbp)
Ltmp279:
	##DEBUG_VALUE: __distance<std::__1::__deque_iterator<int, const int *, const int &, const int *const *, long, 1024> >:__first <- RAX
	##DEBUG_VALUE: __distance<std::__1::__deque_iterator<int, const int *, const int &, const int *const *, long, 1024> >:__last <- R10
	movq	%r10, -344(%rbp)
	movq	%rax, -352(%rbp)
	.loc	3 378 0                 ## /Applications/Xcode.app/Contents/Developer/Toolchains/XcodeDefault.xctoolchain/usr/bin/../include/c++/v1/deque:378:0
Ltmp280:
	movq	-344(%rbp), %rax
Ltmp281:
	movq	-352(%rbp), %rdx
	movq	%rax, -320(%rbp)
	movq	%rdx, -328(%rbp)
	.loc	3 394 0                 ## /Applications/Xcode.app/Contents/Developer/Toolchains/XcodeDefault.xctoolchain/usr/bin/../include/c++/v1/deque:394:0
Ltmp282:
	movq	-320(%rbp), %rax
	movq	-328(%rbp), %rdx
	movq	%rax, -304(%rbp)
	movq	%rdx, -312(%rbp)
	.loc	3 390 0                 ## /Applications/Xcode.app/Contents/Developer/Toolchains/XcodeDefault.xctoolchain/usr/bin/../include/c++/v1/deque:390:0
Ltmp283:
	movq	-304(%rbp), %rax
	movq	8(%rax), %rax
	movq	-312(%rbp), %rdx
	cmpq	8(%rdx), %rax
	sete	%r11b
Ltmp284:
	.loc	3 394 0                 ## /Applications/Xcode.app/Contents/Developer/Toolchains/XcodeDefault.xctoolchain/usr/bin/../include/c++/v1/deque:394:0
	xorb	$1, %r11b
Ltmp285:
	.loc	3 378 0                 ## /Applications/Xcode.app/Contents/Developer/Toolchains/XcodeDefault.xctoolchain/usr/bin/../include/c++/v1/deque:378:0
	testb	$1, %r11b
	movq	%rcx, -592(%rbp)        ## 8-byte Spill
	jne	LBB13_1
	jmp	LBB13_2
Ltmp286:
LBB13_1:
	.loc	3 379 0                 ## /Applications/Xcode.app/Contents/Developer/Toolchains/XcodeDefault.xctoolchain/usr/bin/../include/c++/v1/deque:379:0
	movq	-344(%rbp), %rax
	movq	(%rax), %rax
	movq	-352(%rbp), %rcx
	movq	(%rcx), %rcx
	subq	%rcx, %rax
	sarq	$3, %rax
	shlq	$10, %rax
	movq	-344(%rbp), %rcx
	movq	8(%rcx), %rcx
	movq	-344(%rbp), %rdx
	movq	(%rdx), %rdx
	movq	(%rdx), %rdx
	subq	%rdx, %rcx
	sarq	$2, %rcx
	addq	%rcx, %rax
	movq	-352(%rbp), %rcx
	movq	8(%rcx), %rcx
	movq	-352(%rbp), %rdx
	movq	(%rdx), %rdx
	movq	(%rdx), %rdx
	subq	%rdx, %rcx
	sarq	$2, %rcx
	subq	%rcx, %rax
	movq	%rax, -336(%rbp)
	jmp	LBB13_3
LBB13_2:
	.loc	3 382 0                 ## /Applications/Xcode.app/Contents/Developer/Toolchains/XcodeDefault.xctoolchain/usr/bin/../include/c++/v1/deque:382:0
	movq	$0, -336(%rbp)
LBB13_3:                                ## %_ZNSt3__18distanceINS_16__deque_iteratorIiPKiRS2_PKS3_lLl1024EEEEENS_15iterator_traitsIT_E15difference_typeES9_S9_.exit
	.loc	3 383 0                 ## /Applications/Xcode.app/Contents/Developer/Toolchains/XcodeDefault.xctoolchain/usr/bin/../include/c++/v1/deque:383:0
	movq	-336(%rbp), %rax
Ltmp287:
	.loc	3 2197 21               ## /Applications/Xcode.app/Contents/Developer/Toolchains/XcodeDefault.xctoolchain/usr/bin/../include/c++/v1/deque:2197:21
	movq	%rax, -520(%rbp)
	.loc	3 2198 0                ## /Applications/Xcode.app/Contents/Developer/Toolchains/XcodeDefault.xctoolchain/usr/bin/../include/c++/v1/deque:2198:0
	movq	-592(%rbp), %rax        ## 8-byte Reload
	movq	%rax, -80(%rbp)
	movq	-80(%rbp), %rax
	.loc	3 950 0                 ## /Applications/Xcode.app/Contents/Developer/Toolchains/XcodeDefault.xctoolchain/usr/bin/../include/c++/v1/deque:950:0
Ltmp288:
	addq	$40, %rax
	movq	%rax, -72(%rbp)
	movq	-72(%rbp), %rax
	movq	%rax, -64(%rbp)
	movq	-64(%rbp), %rax
Ltmp289:
	.loc	3 2198 0                ## /Applications/Xcode.app/Contents/Developer/Toolchains/XcodeDefault.xctoolchain/usr/bin/../include/c++/v1/deque:2198:0
	movq	%rax, -560(%rbp)
	movq	-592(%rbp), %rax        ## 8-byte Reload
	movq	%rax, -56(%rbp)
	movq	-56(%rbp), %rcx
	movq	%rcx, -48(%rbp)
	movq	-48(%rbp), %rdx
	.loc	3 1369 0                ## /Applications/Xcode.app/Contents/Developer/Toolchains/XcodeDefault.xctoolchain/usr/bin/../include/c++/v1/deque:1369:0
Ltmp290:
	movq	%rdx, %rsi
	movq	%rsi, -40(%rbp)
	movq	-40(%rbp), %rsi
	.loc	9 84 0                  ## /Applications/Xcode.app/Contents/Developer/Toolchains/XcodeDefault.xctoolchain/usr/bin/../include/c++/v1/__split_buffer:84:0
Ltmp291:
	movq	16(%rsi), %rdi
	movq	8(%rsi), %rsi
	subq	%rsi, %rdi
	sarq	$3, %rdi
Ltmp292:
	.loc	3 1369 0                ## /Applications/Xcode.app/Contents/Developer/Toolchains/XcodeDefault.xctoolchain/usr/bin/../include/c++/v1/deque:1369:0
	cmpq	$0, %rdi
	movq	%rcx, -600(%rbp)        ## 8-byte Spill
	movq	%rdx, -608(%rbp)        ## 8-byte Spill
	jne	LBB13_5
## BB#4:
	movabsq	$0, %rax
	movq	%rax, -616(%rbp)        ## 8-byte Spill
	jmp	LBB13_6
LBB13_5:
	movq	-608(%rbp), %rax        ## 8-byte Reload
	movq	%rax, -32(%rbp)
	movq	-32(%rbp), %rax
	.loc	9 84 0                  ## /Applications/Xcode.app/Contents/Developer/Toolchains/XcodeDefault.xctoolchain/usr/bin/../include/c++/v1/__split_buffer:84:0
Ltmp293:
	movq	16(%rax), %rcx
	movq	8(%rax), %rax
	subq	%rax, %rcx
	sarq	$3, %rcx
Ltmp294:
	.loc	3 1369 0                ## /Applications/Xcode.app/Contents/Developer/Toolchains/XcodeDefault.xctoolchain/usr/bin/../include/c++/v1/deque:1369:0
	shlq	$10, %rcx
	subq	$1, %rcx
	movq	%rcx, -616(%rbp)        ## 8-byte Spill
LBB13_6:                                ## %_ZNKSt3__15dequeIiNS_9allocatorIiEEE12__back_spareEv.exit
	movq	-616(%rbp), %rax        ## 8-byte Reload
Ltmp295:
	.loc	3 1379 0                ## /Applications/Xcode.app/Contents/Developer/Toolchains/XcodeDefault.xctoolchain/usr/bin/../include/c++/v1/deque:1379:0
	movq	-600(%rbp), %rcx        ## 8-byte Reload
	movq	32(%rcx), %rdx
	movq	%rcx, -24(%rbp)
	movq	-24(%rbp), %rcx
	.loc	3 949 0                 ## /Applications/Xcode.app/Contents/Developer/Toolchains/XcodeDefault.xctoolchain/usr/bin/../include/c++/v1/deque:949:0
Ltmp296:
	addq	$40, %rcx
	movq	%rcx, -16(%rbp)
	movq	-16(%rbp), %rcx
	movq	%rcx, -8(%rbp)
	movq	-8(%rbp), %rcx
Ltmp297:
	.loc	3 1379 0                ## /Applications/Xcode.app/Contents/Developer/Toolchains/XcodeDefault.xctoolchain/usr/bin/../include/c++/v1/deque:1379:0
	addq	(%rcx), %rdx
	subq	%rdx, %rax
Ltmp298:
	.loc	3 2199 0                ## /Applications/Xcode.app/Contents/Developer/Toolchains/XcodeDefault.xctoolchain/usr/bin/../include/c++/v1/deque:2199:0
	movq	%rax, -568(%rbp)
	.loc	3 2200 0                ## /Applications/Xcode.app/Contents/Developer/Toolchains/XcodeDefault.xctoolchain/usr/bin/../include/c++/v1/deque:2200:0
Ltmp299:
	movq	-520(%rbp), %rax
	cmpq	-568(%rbp), %rax
	jbe	LBB13_8
## BB#7:
	.loc	3 2201 0                ## /Applications/Xcode.app/Contents/Developer/Toolchains/XcodeDefault.xctoolchain/usr/bin/../include/c++/v1/deque:2201:0
	movq	-520(%rbp), %rax
	subq	-568(%rbp), %rax
	movq	-592(%rbp), %rdi        ## 8-byte Reload
	movq	%rax, %rsi
	callq	__ZNSt3__15dequeIiNS_9allocatorIiEEE19__add_back_capacityEm
Ltmp300:
LBB13_8:
	.loc	3 2203 0                ## /Applications/Xcode.app/Contents/Developer/Toolchains/XcodeDefault.xctoolchain/usr/bin/../include/c++/v1/deque:2203:0
	movq	-592(%rbp), %rax        ## 8-byte Reload
	movq	%rax, %rdi
	callq	__ZNSt3__112__deque_baseIiNS_9allocatorIiEEE3endEv
	movq	%rax, -584(%rbp)
	movq	%rdx, -576(%rbp)
LBB13_9:                                ## =>This Inner Loop Header: Depth=1
	leaq	-496(%rbp), %rax
	leaq	-480(%rbp), %rcx
	movq	%rcx, -104(%rbp)
	movq	%rax, -112(%rbp)
	.loc	3 394 0                 ## /Applications/Xcode.app/Contents/Developer/Toolchains/XcodeDefault.xctoolchain/usr/bin/../include/c++/v1/deque:394:0
Ltmp301:
	movq	-104(%rbp), %rax
	movq	-112(%rbp), %rcx
	movq	%rax, -88(%rbp)
	movq	%rcx, -96(%rbp)
	.loc	3 390 0                 ## /Applications/Xcode.app/Contents/Developer/Toolchains/XcodeDefault.xctoolchain/usr/bin/../include/c++/v1/deque:390:0
Ltmp302:
	movq	-88(%rbp), %rax
	movq	8(%rax), %rax
	movq	-96(%rbp), %rcx
	cmpq	8(%rcx), %rax
	sete	%dl
Ltmp303:
	.loc	3 394 0                 ## /Applications/Xcode.app/Contents/Developer/Toolchains/XcodeDefault.xctoolchain/usr/bin/../include/c++/v1/deque:394:0
	xorb	$1, %dl
Ltmp304:
	.loc	3 2203 0                ## /Applications/Xcode.app/Contents/Developer/Toolchains/XcodeDefault.xctoolchain/usr/bin/../include/c++/v1/deque:2203:0
	testb	$1, %dl
	jne	LBB13_10
	jmp	LBB13_18
LBB13_10:                               ##   in Loop: Header=BB13_9 Depth=1
	leaq	-480(%rbp), %rax
	leaq	-584(%rbp), %rcx
	.loc	3 2204 0                ## /Applications/Xcode.app/Contents/Developer/Toolchains/XcodeDefault.xctoolchain/usr/bin/../include/c++/v1/deque:2204:0
	movq	-560(%rbp), %rdx
	movq	%rcx, -120(%rbp)
	movq	-120(%rbp), %rcx
	.loc	3 294 0                 ## /Applications/Xcode.app/Contents/Developer/Toolchains/XcodeDefault.xctoolchain/usr/bin/../include/c++/v1/deque:294:0
Ltmp305:
	movq	8(%rcx), %rcx
	movq	%rcx, -128(%rbp)
Ltmp306:
	.loc	13 85 0                 ## /Applications/Xcode.app/Contents/Developer/Toolchains/XcodeDefault.xctoolchain/usr/bin/../include/c++/v1/__functional_base:85:0
	movq	-128(%rbp), %rcx
	movq	%rax, -136(%rbp)
	movq	-136(%rbp), %rax
Ltmp307:
	.loc	3 294 0                 ## /Applications/Xcode.app/Contents/Developer/Toolchains/XcodeDefault.xctoolchain/usr/bin/../include/c++/v1/deque:294:0
	movq	8(%rax), %rax
	movq	%rdx, -224(%rbp)
	movq	%rcx, -232(%rbp)
	movq	%rax, -240(%rbp)
	.loc	4 1449 0                ## /Applications/Xcode.app/Contents/Developer/Toolchains/XcodeDefault.xctoolchain/usr/bin/../include/c++/v1/memory:1449:0
	movq	-224(%rbp), %rax
	movq	-232(%rbp), %rcx
	.loc	4 1450 36               ## /Applications/Xcode.app/Contents/Developer/Toolchains/XcodeDefault.xctoolchain/usr/bin/../include/c++/v1/memory:1450:36
	movq	-240(%rbp), %rdx
	movq	%rdx, -216(%rbp)
	.loc	7 1549 0                ## /Applications/Xcode.app/Contents/Developer/Toolchains/XcodeDefault.xctoolchain/usr/bin/../include/c++/v1/type_traits:1549:0
Ltmp308:
	movq	-216(%rbp), %rdx
	movq	%rax, -192(%rbp)
	movq	%rcx, -200(%rbp)
	movq	%rdx, -208(%rbp)
Ltmp309:
	.loc	4 1568 0                ## /Applications/Xcode.app/Contents/Developer/Toolchains/XcodeDefault.xctoolchain/usr/bin/../include/c++/v1/memory:1568:0
	movq	-192(%rbp), %rax
	movq	-200(%rbp), %rcx
	.loc	4 1568 33               ## /Applications/Xcode.app/Contents/Developer/Toolchains/XcodeDefault.xctoolchain/usr/bin/../include/c++/v1/memory:1568:33
	movq	-208(%rbp), %rdx
	movq	%rdx, -176(%rbp)
	.loc	7 1549 0                ## /Applications/Xcode.app/Contents/Developer/Toolchains/XcodeDefault.xctoolchain/usr/bin/../include/c++/v1/type_traits:1549:0
Ltmp310:
	movq	-176(%rbp), %rdx
	movq	%rax, -152(%rbp)
	movq	%rcx, -160(%rbp)
	movq	%rdx, -168(%rbp)
Ltmp311:
	.loc	4 1641 0                ## /Applications/Xcode.app/Contents/Developer/Toolchains/XcodeDefault.xctoolchain/usr/bin/../include/c++/v1/memory:1641:0
	movq	-160(%rbp), %rax
	cmpq	$0, %rax
	movq	%rax, -624(%rbp)        ## 8-byte Spill
	je	LBB13_12
## BB#11:                               ##   in Loop: Header=BB13_9 Depth=1
	movq	-624(%rbp), %rax        ## 8-byte Reload
	.loc	4 1641 35               ## /Applications/Xcode.app/Contents/Developer/Toolchains/XcodeDefault.xctoolchain/usr/bin/../include/c++/v1/memory:1641:35
	movq	-168(%rbp), %rcx
	movq	%rcx, -144(%rbp)
	.loc	7 1549 0                ## /Applications/Xcode.app/Contents/Developer/Toolchains/XcodeDefault.xctoolchain/usr/bin/../include/c++/v1/type_traits:1549:0
Ltmp312:
	movq	-144(%rbp), %rcx
Ltmp313:
	.loc	4 1641 35               ## /Applications/Xcode.app/Contents/Developer/Toolchains/XcodeDefault.xctoolchain/usr/bin/../include/c++/v1/memory:1641:35
	movl	(%rcx), %edx
	movq	-624(%rbp), %rcx        ## 8-byte Reload
	movl	%edx, (%rcx)
	movq	%rax, -632(%rbp)        ## 8-byte Spill
Ltmp314:
LBB13_12:                               ## %_ZNSt3__116allocator_traitsINS_9allocatorIiEEE9constructIiJRKiEEEvRS2_PT_DpOT0_.exit
                                        ##   in Loop: Header=BB13_9 Depth=1
## BB#13:                               ##   in Loop: Header=BB13_9 Depth=1
	leaq	-584(%rbp), %rax
	movq	%rax, -264(%rbp)
	movq	-264(%rbp), %rax
	.loc	3 299 0                 ## /Applications/Xcode.app/Contents/Developer/Toolchains/XcodeDefault.xctoolchain/usr/bin/../include/c++/v1/deque:299:0
Ltmp315:
	movq	8(%rax), %rcx
	addq	$4, %rcx
	movq	%rcx, 8(%rax)
	movq	(%rax), %rdx
	movq	(%rdx), %rdx
	subq	%rdx, %rcx
	sarq	$2, %rcx
	cmpq	$1024, %rcx             ## imm = 0x400
	movq	%rax, -640(%rbp)        ## 8-byte Spill
	jne	LBB13_15
## BB#14:                               ##   in Loop: Header=BB13_9 Depth=1
	.loc	3 301 0                 ## /Applications/Xcode.app/Contents/Developer/Toolchains/XcodeDefault.xctoolchain/usr/bin/../include/c++/v1/deque:301:0
	movq	-640(%rbp), %rax        ## 8-byte Reload
	movq	(%rax), %rcx
	addq	$8, %rcx
	movq	%rcx, (%rax)
	.loc	3 302 0                 ## /Applications/Xcode.app/Contents/Developer/Toolchains/XcodeDefault.xctoolchain/usr/bin/../include/c++/v1/deque:302:0
	movq	(%rax), %rcx
	movq	(%rcx), %rcx
	movq	%rcx, 8(%rax)
LBB13_15:                               ## %_ZNSt3__116__deque_iteratorIiPiRiPS1_lLl1024EEppEv.exit
                                        ##   in Loop: Header=BB13_9 Depth=1
	leaq	-480(%rbp), %rax
	movq	%rax, -272(%rbp)
	movq	-272(%rbp), %rax
	.loc	3 299 0                 ## /Applications/Xcode.app/Contents/Developer/Toolchains/XcodeDefault.xctoolchain/usr/bin/../include/c++/v1/deque:299:0
	movq	8(%rax), %rcx
	addq	$4, %rcx
	movq	%rcx, 8(%rax)
	movq	(%rax), %rdx
	movq	(%rdx), %rdx
	subq	%rdx, %rcx
	sarq	$2, %rcx
	cmpq	$1024, %rcx             ## imm = 0x400
	movq	%rax, -648(%rbp)        ## 8-byte Spill
	jne	LBB13_17
## BB#16:                               ##   in Loop: Header=BB13_9 Depth=1
	.loc	3 301 0                 ## /Applications/Xcode.app/Contents/Developer/Toolchains/XcodeDefault.xctoolchain/usr/bin/../include/c++/v1/deque:301:0
	movq	-648(%rbp), %rax        ## 8-byte Reload
	movq	(%rax), %rcx
	addq	$8, %rcx
	movq	%rcx, (%rax)
	.loc	3 302 0                 ## /Applications/Xcode.app/Contents/Developer/Toolchains/XcodeDefault.xctoolchain/usr/bin/../include/c++/v1/deque:302:0
	movq	(%rax), %rcx
	movq	(%rcx), %rcx
	movq	%rcx, 8(%rax)
Ltmp316:
LBB13_17:                               ## %_ZNSt3__116__deque_iteratorIiPKiRS1_PKS2_lLl1024EEppEv.exit
                                        ##   in Loop: Header=BB13_9 Depth=1
	.loc	3 2203 0                ## /Applications/Xcode.app/Contents/Developer/Toolchains/XcodeDefault.xctoolchain/usr/bin/../include/c++/v1/deque:2203:0
	movq	-592(%rbp), %rax        ## 8-byte Reload
	movq	%rax, -296(%rbp)
	movq	-296(%rbp), %rax
	.loc	3 947 0                 ## /Applications/Xcode.app/Contents/Developer/Toolchains/XcodeDefault.xctoolchain/usr/bin/../include/c++/v1/deque:947:0
Ltmp317:
	addq	$40, %rax
	movq	%rax, -288(%rbp)
	movq	-288(%rbp), %rax
	movq	%rax, -280(%rbp)
	movq	-280(%rbp), %rax
Ltmp318:
	.loc	3 2203 0                ## /Applications/Xcode.app/Contents/Developer/Toolchains/XcodeDefault.xctoolchain/usr/bin/../include/c++/v1/deque:2203:0
	movq	(%rax), %rcx
	addq	$1, %rcx
	movq	%rcx, (%rax)
	jmp	LBB13_9
Ltmp319:
LBB13_18:
	.loc	3 2205 0                ## /Applications/Xcode.app/Contents/Developer/Toolchains/XcodeDefault.xctoolchain/usr/bin/../include/c++/v1/deque:2205:0
	addq	$656, %rsp              ## imm = 0x290
	popq	%rbp
	retq
Ltmp320:
Lfunc_end13:
	.cfi_endproc

	.globl	__ZNSt3__15dequeIiNS_9allocatorIiEEE14__erase_to_endENS_16__deque_iteratorIiPKiRS5_PKS6_lLl1024EEE
	.weak_def_can_be_hidden	__ZNSt3__15dequeIiNS_9allocatorIiEEE14__erase_to_endENS_16__deque_iteratorIiPKiRS5_PKS6_lLl1024EEE
	.align	4, 0x90
__ZNSt3__15dequeIiNS_9allocatorIiEEE14__erase_to_endENS_16__deque_iteratorIiPKiRS5_PKS6_lLl1024EEE: ## @_ZNSt3__15dequeIiNS_9allocatorIiEEE14__erase_to_endENS_16__deque_iteratorIiPKiRS5_PKS6_lLl1024EEE
Lfunc_begin14:
	.loc	3 2776 0                ## /Applications/Xcode.app/Contents/Developer/Toolchains/XcodeDefault.xctoolchain/usr/bin/../include/c++/v1/deque:2776:0
	.cfi_startproc
## BB#0:
	pushq	%rbp
Ltmp323:
	.cfi_def_cfa_offset 16
Ltmp324:
	.cfi_offset %rbp, -16
	movq	%rsp, %rbp
Ltmp325:
	.cfi_def_cfa_register %rbp
	subq	$944, %rsp              ## imm = 0x3B0
	movq	%rsi, -728(%rbp)
	movq	%rdx, -720(%rbp)
	movq	%rdi, -736(%rbp)
	movq	-736(%rbp), %rdx
	.loc	3 2777 0 prologue_end   ## /Applications/Xcode.app/Contents/Developer/Toolchains/XcodeDefault.xctoolchain/usr/bin/../include/c++/v1/deque:2777:0
Ltmp326:
	movq	%rdx, %rsi
	movq	%rsi, %rdi
	movq	%rdx, -848(%rbp)        ## 8-byte Spill
	callq	__ZNSt3__112__deque_baseIiNS_9allocatorIiEEE3endEv
	leaq	-728(%rbp), %rsi
	leaq	-776(%rbp), %rdi
	leaq	-752(%rbp), %rcx
	movq	%rax, -752(%rbp)
	movq	%rdx, -744(%rbp)
	movq	%rdi, -696(%rbp)
	movq	%rcx, -704(%rbp)
	movq	$0, -712(%rbp)
	movq	-696(%rbp), %rax
	.loc	3 292 0                 ## /Applications/Xcode.app/Contents/Developer/Toolchains/XcodeDefault.xctoolchain/usr/bin/../include/c++/v1/deque:292:0
Ltmp327:
	movq	-712(%rbp), %rcx
	movq	-704(%rbp), %rdx
	movq	%rax, -672(%rbp)
	movq	%rdx, -680(%rbp)
	movq	%rcx, -688(%rbp)
	movq	-672(%rbp), %rax
	.loc	3 292 0                 ## /Applications/Xcode.app/Contents/Developer/Toolchains/XcodeDefault.xctoolchain/usr/bin/../include/c++/v1/deque:292:0
Ltmp328:
	movq	-680(%rbp), %rcx
	movq	(%rcx), %rcx
	movq	%rcx, (%rax)
	movq	-680(%rbp), %rcx
	movq	8(%rcx), %rcx
	movq	%rcx, 8(%rax)
	movq	%rdi, -448(%rbp)
	movq	%rsi, -456(%rbp)
Ltmp329:
	.loc	3 378 0                 ## /Applications/Xcode.app/Contents/Developer/Toolchains/XcodeDefault.xctoolchain/usr/bin/../include/c++/v1/deque:378:0
	movq	-448(%rbp), %rax
	movq	-456(%rbp), %rcx
	movq	%rax, -424(%rbp)
	movq	%rcx, -432(%rbp)
	.loc	3 394 0                 ## /Applications/Xcode.app/Contents/Developer/Toolchains/XcodeDefault.xctoolchain/usr/bin/../include/c++/v1/deque:394:0
Ltmp330:
	movq	-424(%rbp), %rax
	movq	-432(%rbp), %rcx
	movq	%rax, -408(%rbp)
	movq	%rcx, -416(%rbp)
	.loc	3 390 0                 ## /Applications/Xcode.app/Contents/Developer/Toolchains/XcodeDefault.xctoolchain/usr/bin/../include/c++/v1/deque:390:0
Ltmp331:
	movq	-408(%rbp), %rax
	movq	8(%rax), %rax
	movq	-416(%rbp), %rcx
	cmpq	8(%rcx), %rax
	sete	%r8b
Ltmp332:
	.loc	3 394 0                 ## /Applications/Xcode.app/Contents/Developer/Toolchains/XcodeDefault.xctoolchain/usr/bin/../include/c++/v1/deque:394:0
	xorb	$1, %r8b
Ltmp333:
	.loc	3 378 0                 ## /Applications/Xcode.app/Contents/Developer/Toolchains/XcodeDefault.xctoolchain/usr/bin/../include/c++/v1/deque:378:0
	testb	$1, %r8b
	jne	LBB14_1
	jmp	LBB14_2
LBB14_1:
	.loc	3 379 0                 ## /Applications/Xcode.app/Contents/Developer/Toolchains/XcodeDefault.xctoolchain/usr/bin/../include/c++/v1/deque:379:0
	movq	-448(%rbp), %rax
	movq	(%rax), %rax
	movq	-456(%rbp), %rcx
	movq	(%rcx), %rcx
	subq	%rcx, %rax
	sarq	$3, %rax
	shlq	$10, %rax
	movq	-448(%rbp), %rcx
	movq	8(%rcx), %rcx
	movq	-448(%rbp), %rdx
	movq	(%rdx), %rdx
	movq	(%rdx), %rdx
	subq	%rdx, %rcx
	sarq	$2, %rcx
	addq	%rcx, %rax
	movq	-456(%rbp), %rcx
	movq	8(%rcx), %rcx
	movq	-456(%rbp), %rdx
	movq	(%rdx), %rdx
	movq	(%rdx), %rdx
	subq	%rdx, %rcx
	sarq	$2, %rcx
	subq	%rcx, %rax
	movq	%rax, -440(%rbp)
	jmp	LBB14_3
LBB14_2:
	.loc	3 382 0                 ## /Applications/Xcode.app/Contents/Developer/Toolchains/XcodeDefault.xctoolchain/usr/bin/../include/c++/v1/deque:382:0
	movq	$0, -440(%rbp)
LBB14_3:                                ## %_ZNSt3__1miERKNS_16__deque_iteratorIiPKiRS1_PKS2_lLl1024EEES8_.exit
	.loc	3 383 0                 ## /Applications/Xcode.app/Contents/Developer/Toolchains/XcodeDefault.xctoolchain/usr/bin/../include/c++/v1/deque:383:0
	movq	-440(%rbp), %rax
Ltmp334:
	.loc	3 2778 0                ## /Applications/Xcode.app/Contents/Developer/Toolchains/XcodeDefault.xctoolchain/usr/bin/../include/c++/v1/deque:2778:0
	movq	%rax, -760(%rbp)
	.loc	3 2779 0                ## /Applications/Xcode.app/Contents/Developer/Toolchains/XcodeDefault.xctoolchain/usr/bin/../include/c++/v1/deque:2779:0
Ltmp335:
	cmpq	$0, -760(%rbp)
	jle	LBB14_28
## BB#4:
	.loc	3 2781 0                ## /Applications/Xcode.app/Contents/Developer/Toolchains/XcodeDefault.xctoolchain/usr/bin/../include/c++/v1/deque:2781:0
Ltmp336:
	movq	-848(%rbp), %rax        ## 8-byte Reload
	movq	%rax, -24(%rbp)
	movq	-24(%rbp), %rax
	.loc	3 950 0                 ## /Applications/Xcode.app/Contents/Developer/Toolchains/XcodeDefault.xctoolchain/usr/bin/../include/c++/v1/deque:950:0
Ltmp337:
	addq	$40, %rax
	movq	%rax, -16(%rbp)
	movq	-16(%rbp), %rax
	movq	%rax, -8(%rbp)
	movq	-8(%rbp), %rax
Ltmp338:
	.loc	3 2781 0                ## /Applications/Xcode.app/Contents/Developer/Toolchains/XcodeDefault.xctoolchain/usr/bin/../include/c++/v1/deque:2781:0
	movq	%rax, -784(%rbp)
	.loc	3 2782 0                ## /Applications/Xcode.app/Contents/Developer/Toolchains/XcodeDefault.xctoolchain/usr/bin/../include/c++/v1/deque:2782:0
	movq	-848(%rbp), %rax        ## 8-byte Reload
	movq	%rax, %rdi
	callq	__ZNSt3__112__deque_baseIiNS_9allocatorIiEEE5beginEv
	leaq	-824(%rbp), %rdi
	leaq	-728(%rbp), %rcx
	leaq	-800(%rbp), %rsi
	movq	%rax, -800(%rbp)
	movq	%rdx, -792(%rbp)
	movq	%rdi, -56(%rbp)
	movq	%rsi, -64(%rbp)
	movq	$0, -72(%rbp)
	movq	-56(%rbp), %rax
	.loc	3 292 0                 ## /Applications/Xcode.app/Contents/Developer/Toolchains/XcodeDefault.xctoolchain/usr/bin/../include/c++/v1/deque:292:0
Ltmp339:
	movq	-72(%rbp), %rdx
	movq	-64(%rbp), %rsi
	movq	%rax, -32(%rbp)
	movq	%rsi, -40(%rbp)
	movq	%rdx, -48(%rbp)
	movq	-32(%rbp), %rax
	.loc	3 292 0                 ## /Applications/Xcode.app/Contents/Developer/Toolchains/XcodeDefault.xctoolchain/usr/bin/../include/c++/v1/deque:292:0
Ltmp340:
	movq	-40(%rbp), %rdx
	movq	(%rdx), %rdx
	movq	%rdx, (%rax)
	movq	-40(%rbp), %rdx
	movq	8(%rdx), %rdx
	movq	%rdx, 8(%rax)
	movq	%rcx, -120(%rbp)
	movq	%rdi, -128(%rbp)
Ltmp341:
	.loc	3 378 0                 ## /Applications/Xcode.app/Contents/Developer/Toolchains/XcodeDefault.xctoolchain/usr/bin/../include/c++/v1/deque:378:0
	movq	-120(%rbp), %rax
	movq	-128(%rbp), %rcx
	movq	%rax, -96(%rbp)
	movq	%rcx, -104(%rbp)
	.loc	3 394 0                 ## /Applications/Xcode.app/Contents/Developer/Toolchains/XcodeDefault.xctoolchain/usr/bin/../include/c++/v1/deque:394:0
Ltmp342:
	movq	-96(%rbp), %rax
	movq	-104(%rbp), %rcx
	movq	%rax, -80(%rbp)
	movq	%rcx, -88(%rbp)
	.loc	3 390 0                 ## /Applications/Xcode.app/Contents/Developer/Toolchains/XcodeDefault.xctoolchain/usr/bin/../include/c++/v1/deque:390:0
Ltmp343:
	movq	-80(%rbp), %rax
	movq	8(%rax), %rax
	movq	-88(%rbp), %rcx
	cmpq	8(%rcx), %rax
	sete	%r8b
Ltmp344:
	.loc	3 394 0                 ## /Applications/Xcode.app/Contents/Developer/Toolchains/XcodeDefault.xctoolchain/usr/bin/../include/c++/v1/deque:394:0
	xorb	$1, %r8b
Ltmp345:
	.loc	3 378 0                 ## /Applications/Xcode.app/Contents/Developer/Toolchains/XcodeDefault.xctoolchain/usr/bin/../include/c++/v1/deque:378:0
	testb	$1, %r8b
	jne	LBB14_5
	jmp	LBB14_6
LBB14_5:
	.loc	3 379 0                 ## /Applications/Xcode.app/Contents/Developer/Toolchains/XcodeDefault.xctoolchain/usr/bin/../include/c++/v1/deque:379:0
	movq	-120(%rbp), %rax
	movq	(%rax), %rax
	movq	-128(%rbp), %rcx
	movq	(%rcx), %rcx
	subq	%rcx, %rax
	sarq	$3, %rax
	shlq	$10, %rax
	movq	-120(%rbp), %rcx
	movq	8(%rcx), %rcx
	movq	-120(%rbp), %rdx
	movq	(%rdx), %rdx
	movq	(%rdx), %rdx
	subq	%rdx, %rcx
	sarq	$2, %rcx
	addq	%rcx, %rax
	movq	-128(%rbp), %rcx
	movq	8(%rcx), %rcx
	movq	-128(%rbp), %rdx
	movq	(%rdx), %rdx
	movq	(%rdx), %rdx
	subq	%rdx, %rcx
	sarq	$2, %rcx
	subq	%rcx, %rax
	movq	%rax, -112(%rbp)
	jmp	LBB14_7
LBB14_6:
	.loc	3 382 0                 ## /Applications/Xcode.app/Contents/Developer/Toolchains/XcodeDefault.xctoolchain/usr/bin/../include/c++/v1/deque:382:0
	movq	$0, -112(%rbp)
LBB14_7:                                ## %_ZNSt3__1miERKNS_16__deque_iteratorIiPKiRS1_PKS2_lLl1024EEES8_.exit1
	leaq	-168(%rbp), %rax
	leaq	-800(%rbp), %rcx
	.loc	3 383 0                 ## /Applications/Xcode.app/Contents/Developer/Toolchains/XcodeDefault.xctoolchain/usr/bin/../include/c++/v1/deque:383:0
	movq	-112(%rbp), %rdx
Ltmp346:
	.loc	3 2783 0                ## /Applications/Xcode.app/Contents/Developer/Toolchains/XcodeDefault.xctoolchain/usr/bin/../include/c++/v1/deque:2783:0
	movq	%rdx, -808(%rbp)
	.loc	3 2784 0                ## /Applications/Xcode.app/Contents/Developer/Toolchains/XcodeDefault.xctoolchain/usr/bin/../include/c++/v1/deque:2784:0
Ltmp347:
	movq	-808(%rbp), %rdx
	movq	%rcx, -176(%rbp)
	movq	%rdx, -184(%rbp)
	movq	-176(%rbp), %rcx
Ltmp348:
	##DEBUG_VALUE: operator+:__t <- RAX
	.loc	3 359 0                 ## /Applications/Xcode.app/Contents/Developer/Toolchains/XcodeDefault.xctoolchain/usr/bin/../include/c++/v1/deque:359:0
	movq	(%rcx), %rdx
	movq	%rdx, -168(%rbp)
	movq	8(%rcx), %rcx
	movq	%rcx, -160(%rbp)
	.loc	3 360 0                 ## /Applications/Xcode.app/Contents/Developer/Toolchains/XcodeDefault.xctoolchain/usr/bin/../include/c++/v1/deque:360:0
	movq	-184(%rbp), %rcx
	movq	%rax, -136(%rbp)
	movq	%rcx, -144(%rbp)
	movq	-136(%rbp), %rax
Ltmp349:
	.loc	3 334 0                 ## /Applications/Xcode.app/Contents/Developer/Toolchains/XcodeDefault.xctoolchain/usr/bin/../include/c++/v1/deque:334:0
	cmpq	$0, -144(%rbp)
	movq	%rax, -856(%rbp)        ## 8-byte Spill
	je	LBB14_12
## BB#8:
	.loc	3 336 0                 ## /Applications/Xcode.app/Contents/Developer/Toolchains/XcodeDefault.xctoolchain/usr/bin/../include/c++/v1/deque:336:0
	movq	-856(%rbp), %rax        ## 8-byte Reload
	movq	8(%rax), %rcx
	movq	(%rax), %rdx
	movq	(%rdx), %rdx
	subq	%rdx, %rcx
	sarq	$2, %rcx
	movq	-144(%rbp), %rdx
	addq	%rcx, %rdx
	movq	%rdx, -144(%rbp)
	.loc	3 337 0                 ## /Applications/Xcode.app/Contents/Developer/Toolchains/XcodeDefault.xctoolchain/usr/bin/../include/c++/v1/deque:337:0
	cmpq	$0, -144(%rbp)
	jle	LBB14_10
## BB#9:
	movabsq	$1024, %rax             ## imm = 0x400
	.loc	3 339 0                 ## /Applications/Xcode.app/Contents/Developer/Toolchains/XcodeDefault.xctoolchain/usr/bin/../include/c++/v1/deque:339:0
	movq	-144(%rbp), %rcx
	movq	%rax, -864(%rbp)        ## 8-byte Spill
	movq	%rcx, %rax
	cqto
	movq	-864(%rbp), %rcx        ## 8-byte Reload
	idivq	%rcx
	movq	-856(%rbp), %rdx        ## 8-byte Reload
	movq	(%rdx), %rsi
	shlq	$3, %rax
	addq	%rax, %rsi
	movq	%rsi, (%rdx)
	.loc	3 340 0                 ## /Applications/Xcode.app/Contents/Developer/Toolchains/XcodeDefault.xctoolchain/usr/bin/../include/c++/v1/deque:340:0
	movq	(%rdx), %rax
	movq	(%rax), %rax
	movq	-144(%rbp), %rsi
	movq	%rax, -872(%rbp)        ## 8-byte Spill
	movq	%rsi, %rax
	cqto
	idivq	%rcx
	shlq	$2, %rdx
	movq	-872(%rbp), %rax        ## 8-byte Reload
	addq	%rdx, %rax
	movq	-856(%rbp), %rdx        ## 8-byte Reload
	movq	%rax, 8(%rdx)
	.loc	3 341 0                 ## /Applications/Xcode.app/Contents/Developer/Toolchains/XcodeDefault.xctoolchain/usr/bin/../include/c++/v1/deque:341:0
	jmp	LBB14_11
LBB14_10:
	movabsq	$1023, %rax             ## imm = 0x3FF
	movabsq	$1024, %rcx             ## imm = 0x400
	movabsq	$0, %rdx
	.loc	3 344 0                 ## /Applications/Xcode.app/Contents/Developer/Toolchains/XcodeDefault.xctoolchain/usr/bin/../include/c++/v1/deque:344:0
	movq	%rax, %rsi
	subq	-144(%rbp), %rsi
	movq	%rsi, -152(%rbp)
	.loc	3 345 0                 ## /Applications/Xcode.app/Contents/Developer/Toolchains/XcodeDefault.xctoolchain/usr/bin/../include/c++/v1/deque:345:0
	movq	-152(%rbp), %rsi
	movq	%rax, -880(%rbp)        ## 8-byte Spill
	movq	%rsi, %rax
	movq	%rdx, -888(%rbp)        ## 8-byte Spill
	cqto
	idivq	%rcx
	movq	-856(%rbp), %rdx        ## 8-byte Reload
	movq	(%rdx), %rsi
	movq	-888(%rbp), %rdi        ## 8-byte Reload
	subq	%rax, %rdi
	shlq	$3, %rdi
	addq	%rdi, %rsi
	movq	%rsi, (%rdx)
	.loc	3 346 0                 ## /Applications/Xcode.app/Contents/Developer/Toolchains/XcodeDefault.xctoolchain/usr/bin/../include/c++/v1/deque:346:0
	movq	(%rdx), %rax
	movq	(%rax), %rax
	movq	-152(%rbp), %rsi
	movq	%rax, -896(%rbp)        ## 8-byte Spill
	movq	%rsi, %rax
	cqto
	idivq	%rcx
	movq	-880(%rbp), %rax        ## 8-byte Reload
	subq	%rdx, %rax
	shlq	$2, %rax
	movq	-896(%rbp), %rcx        ## 8-byte Reload
	addq	%rax, %rcx
	movq	-856(%rbp), %rax        ## 8-byte Reload
	movq	%rcx, 8(%rax)
LBB14_11:
	.loc	3 348 0                 ## /Applications/Xcode.app/Contents/Developer/Toolchains/XcodeDefault.xctoolchain/usr/bin/../include/c++/v1/deque:348:0
	jmp	LBB14_12
Ltmp350:
LBB14_12:                               ## %_ZNKSt3__116__deque_iteratorIiPiRiPS1_lLl1024EEplEl.exit
	.loc	3 361 0                 ## /Applications/Xcode.app/Contents/Developer/Toolchains/XcodeDefault.xctoolchain/usr/bin/../include/c++/v1/deque:361:0
	movq	-168(%rbp), %rax
	movq	-160(%rbp), %rcx
Ltmp351:
	.loc	3 2784 0                ## /Applications/Xcode.app/Contents/Developer/Toolchains/XcodeDefault.xctoolchain/usr/bin/../include/c++/v1/deque:2784:0
	movq	%rax, -840(%rbp)
	movq	%rcx, -832(%rbp)
LBB14_13:                               ## =>This Inner Loop Header: Depth=1
	leaq	-752(%rbp), %rax
	leaq	-840(%rbp), %rcx
	movq	%rcx, -208(%rbp)
	movq	%rax, -216(%rbp)
	.loc	3 394 0                 ## /Applications/Xcode.app/Contents/Developer/Toolchains/XcodeDefault.xctoolchain/usr/bin/../include/c++/v1/deque:394:0
Ltmp352:
	movq	-208(%rbp), %rax
	movq	-216(%rbp), %rcx
	movq	%rax, -192(%rbp)
	movq	%rcx, -200(%rbp)
	.loc	3 390 0                 ## /Applications/Xcode.app/Contents/Developer/Toolchains/XcodeDefault.xctoolchain/usr/bin/../include/c++/v1/deque:390:0
Ltmp353:
	movq	-192(%rbp), %rax
	movq	8(%rax), %rax
	movq	-200(%rbp), %rcx
	cmpq	8(%rcx), %rax
	sete	%dl
Ltmp354:
	.loc	3 394 0                 ## /Applications/Xcode.app/Contents/Developer/Toolchains/XcodeDefault.xctoolchain/usr/bin/../include/c++/v1/deque:394:0
	xorb	$1, %dl
Ltmp355:
	.loc	3 2784 0                ## /Applications/Xcode.app/Contents/Developer/Toolchains/XcodeDefault.xctoolchain/usr/bin/../include/c++/v1/deque:2784:0
	testb	$1, %dl
	jne	LBB14_14
	jmp	LBB14_18
LBB14_14:                               ##   in Loop: Header=BB14_13 Depth=1
	leaq	-840(%rbp), %rax
	.loc	3 2785 0                ## /Applications/Xcode.app/Contents/Developer/Toolchains/XcodeDefault.xctoolchain/usr/bin/../include/c++/v1/deque:2785:0
	movq	-784(%rbp), %rcx
	movq	%rax, -224(%rbp)
	movq	-224(%rbp), %rax
	.loc	3 294 0                 ## /Applications/Xcode.app/Contents/Developer/Toolchains/XcodeDefault.xctoolchain/usr/bin/../include/c++/v1/deque:294:0
Ltmp356:
	movq	8(%rax), %rax
	movq	%rax, -232(%rbp)
Ltmp357:
	.loc	13 85 0                 ## /Applications/Xcode.app/Contents/Developer/Toolchains/XcodeDefault.xctoolchain/usr/bin/../include/c++/v1/__functional_base:85:0
	movq	-232(%rbp), %rax
	movq	%rcx, -280(%rbp)
	movq	%rax, -288(%rbp)
Ltmp358:
	.loc	4 1483 0                ## /Applications/Xcode.app/Contents/Developer/Toolchains/XcodeDefault.xctoolchain/usr/bin/../include/c++/v1/memory:1483:0
	movq	-280(%rbp), %rax
	movq	-288(%rbp), %rcx
	movq	%rax, -264(%rbp)
	movq	%rcx, -272(%rbp)
	.loc	4 1580 0                ## /Applications/Xcode.app/Contents/Developer/Toolchains/XcodeDefault.xctoolchain/usr/bin/../include/c++/v1/memory:1580:0
Ltmp359:
	movq	-264(%rbp), %rax
	movq	-272(%rbp), %rcx
	movq	%rax, -240(%rbp)
	movq	%rcx, -248(%rbp)
Ltmp360:
## BB#15:                               ##   in Loop: Header=BB14_13 Depth=1
	leaq	-840(%rbp), %rax
	movq	%rax, -312(%rbp)
	movq	-312(%rbp), %rax
	.loc	3 299 0                 ## /Applications/Xcode.app/Contents/Developer/Toolchains/XcodeDefault.xctoolchain/usr/bin/../include/c++/v1/deque:299:0
Ltmp361:
	movq	8(%rax), %rcx
	addq	$4, %rcx
	movq	%rcx, 8(%rax)
	movq	(%rax), %rdx
	movq	(%rdx), %rdx
	subq	%rdx, %rcx
	sarq	$2, %rcx
	cmpq	$1024, %rcx             ## imm = 0x400
	movq	%rax, -904(%rbp)        ## 8-byte Spill
	jne	LBB14_17
## BB#16:                               ##   in Loop: Header=BB14_13 Depth=1
	.loc	3 301 0                 ## /Applications/Xcode.app/Contents/Developer/Toolchains/XcodeDefault.xctoolchain/usr/bin/../include/c++/v1/deque:301:0
	movq	-904(%rbp), %rax        ## 8-byte Reload
	movq	(%rax), %rcx
	addq	$8, %rcx
	movq	%rcx, (%rax)
	.loc	3 302 0                 ## /Applications/Xcode.app/Contents/Developer/Toolchains/XcodeDefault.xctoolchain/usr/bin/../include/c++/v1/deque:302:0
	movq	(%rax), %rcx
	movq	(%rcx), %rcx
	movq	%rcx, 8(%rax)
Ltmp362:
LBB14_17:                               ## %_ZNSt3__116__deque_iteratorIiPiRiPS1_lLl1024EEppEv.exit
                                        ##   in Loop: Header=BB14_13 Depth=1
	.loc	3 2784 0                ## /Applications/Xcode.app/Contents/Developer/Toolchains/XcodeDefault.xctoolchain/usr/bin/../include/c++/v1/deque:2784:0
	jmp	LBB14_13
Ltmp363:
LBB14_18:
	.loc	3 2786 0                ## /Applications/Xcode.app/Contents/Developer/Toolchains/XcodeDefault.xctoolchain/usr/bin/../include/c++/v1/deque:2786:0
	movq	-760(%rbp), %rax
	movq	-848(%rbp), %rcx        ## 8-byte Reload
	movq	%rcx, -336(%rbp)
	movq	-336(%rbp), %rcx
	.loc	3 947 0                 ## /Applications/Xcode.app/Contents/Developer/Toolchains/XcodeDefault.xctoolchain/usr/bin/../include/c++/v1/deque:947:0
Ltmp364:
	addq	$40, %rcx
	movq	%rcx, -328(%rbp)
	movq	-328(%rbp), %rcx
	movq	%rcx, -320(%rbp)
	movq	-320(%rbp), %rcx
Ltmp365:
	.loc	3 2786 0                ## /Applications/Xcode.app/Contents/Developer/Toolchains/XcodeDefault.xctoolchain/usr/bin/../include/c++/v1/deque:2786:0
	movq	(%rcx), %rdx
	subq	%rax, %rdx
	movq	%rdx, (%rcx)
LBB14_19:                               ## =>This Loop Header: Depth=1
                                        ##     Child Loop BB14_24 Depth 2
	movq	-848(%rbp), %rax        ## 8-byte Reload
	movq	%rax, -392(%rbp)
	movq	-392(%rbp), %rcx
	movq	%rcx, -384(%rbp)
	movq	-384(%rbp), %rdx
	.loc	3 1369 0                ## /Applications/Xcode.app/Contents/Developer/Toolchains/XcodeDefault.xctoolchain/usr/bin/../include/c++/v1/deque:1369:0
Ltmp366:
	movq	%rdx, %rsi
	movq	%rsi, -376(%rbp)
	movq	-376(%rbp), %rsi
	.loc	9 84 0                  ## /Applications/Xcode.app/Contents/Developer/Toolchains/XcodeDefault.xctoolchain/usr/bin/../include/c++/v1/__split_buffer:84:0
Ltmp367:
	movq	16(%rsi), %rdi
	movq	8(%rsi), %rsi
	subq	%rsi, %rdi
	sarq	$3, %rdi
Ltmp368:
	.loc	3 1369 0                ## /Applications/Xcode.app/Contents/Developer/Toolchains/XcodeDefault.xctoolchain/usr/bin/../include/c++/v1/deque:1369:0
	cmpq	$0, %rdi
	movq	%rcx, -912(%rbp)        ## 8-byte Spill
	movq	%rdx, -920(%rbp)        ## 8-byte Spill
	jne	LBB14_21
## BB#20:                               ##   in Loop: Header=BB14_19 Depth=1
	movabsq	$0, %rax
	movq	%rax, -928(%rbp)        ## 8-byte Spill
	jmp	LBB14_22
LBB14_21:                               ##   in Loop: Header=BB14_19 Depth=1
	movq	-920(%rbp), %rax        ## 8-byte Reload
	movq	%rax, -368(%rbp)
	movq	-368(%rbp), %rax
	.loc	9 84 0                  ## /Applications/Xcode.app/Contents/Developer/Toolchains/XcodeDefault.xctoolchain/usr/bin/../include/c++/v1/__split_buffer:84:0
Ltmp369:
	movq	16(%rax), %rcx
	movq	8(%rax), %rax
	subq	%rax, %rcx
	sarq	$3, %rcx
Ltmp370:
	.loc	3 1369 0                ## /Applications/Xcode.app/Contents/Developer/Toolchains/XcodeDefault.xctoolchain/usr/bin/../include/c++/v1/deque:1369:0
	shlq	$10, %rcx
	subq	$1, %rcx
	movq	%rcx, -928(%rbp)        ## 8-byte Spill
LBB14_22:                               ## %_ZNKSt3__15dequeIiNS_9allocatorIiEEE12__back_spareEv.exit
                                        ##   in Loop: Header=BB14_19 Depth=1
	movq	-928(%rbp), %rax        ## 8-byte Reload
Ltmp371:
	.loc	3 1379 0                ## /Applications/Xcode.app/Contents/Developer/Toolchains/XcodeDefault.xctoolchain/usr/bin/../include/c++/v1/deque:1379:0
	movq	-912(%rbp), %rcx        ## 8-byte Reload
	movq	32(%rcx), %rdx
	movq	%rcx, -360(%rbp)
	movq	-360(%rbp), %rcx
	.loc	3 949 0                 ## /Applications/Xcode.app/Contents/Developer/Toolchains/XcodeDefault.xctoolchain/usr/bin/../include/c++/v1/deque:949:0
Ltmp372:
	addq	$40, %rcx
	movq	%rcx, -352(%rbp)
	movq	-352(%rbp), %rcx
	movq	%rcx, -344(%rbp)
	movq	-344(%rbp), %rcx
Ltmp373:
	.loc	3 1379 0                ## /Applications/Xcode.app/Contents/Developer/Toolchains/XcodeDefault.xctoolchain/usr/bin/../include/c++/v1/deque:1379:0
	addq	(%rcx), %rdx
	subq	%rdx, %rax
Ltmp374:
	.loc	3 2787 0                ## /Applications/Xcode.app/Contents/Developer/Toolchains/XcodeDefault.xctoolchain/usr/bin/../include/c++/v1/deque:2787:0
	cmpq	$2048, %rax             ## imm = 0x800
	jb	LBB14_27
## BB#23:                               ##   in Loop: Header=BB14_19 Depth=1
	.loc	3 2789 0                ## /Applications/Xcode.app/Contents/Developer/Toolchains/XcodeDefault.xctoolchain/usr/bin/../include/c++/v1/deque:2789:0
Ltmp375:
	movq	-784(%rbp), %rax
	movq	-848(%rbp), %rcx        ## 8-byte Reload
	movq	%rcx, -400(%rbp)
	movq	-400(%rbp), %rcx
	.loc	9 92 0                  ## /Applications/Xcode.app/Contents/Developer/Toolchains/XcodeDefault.xctoolchain/usr/bin/../include/c++/v1/__split_buffer:92:0
Ltmp376:
	movq	16(%rcx), %rcx
Ltmp377:
	.loc	3 2789 0                ## /Applications/Xcode.app/Contents/Developer/Toolchains/XcodeDefault.xctoolchain/usr/bin/../include/c++/v1/deque:2789:0
	movq	-8(%rcx), %rcx
	movq	%rax, -488(%rbp)
	movq	%rcx, -496(%rbp)
	movq	$1024, -504(%rbp)       ## imm = 0x400
	.loc	4 1443 0                ## /Applications/Xcode.app/Contents/Developer/Toolchains/XcodeDefault.xctoolchain/usr/bin/../include/c++/v1/memory:1443:0
Ltmp378:
	movq	-488(%rbp), %rax
	movq	-496(%rbp), %rcx
	movq	-504(%rbp), %rdx
	movq	%rax, -464(%rbp)
	movq	%rcx, -472(%rbp)
	movq	%rdx, -480(%rbp)
	.loc	4 1632 0                ## /Applications/Xcode.app/Contents/Developer/Toolchains/XcodeDefault.xctoolchain/usr/bin/../include/c++/v1/memory:1632:0
Ltmp379:
	movq	-472(%rbp), %rax
	movq	%rax, %rdi
	callq	__ZdlPv
Ltmp380:
	.loc	3 2790 0                ## /Applications/Xcode.app/Contents/Developer/Toolchains/XcodeDefault.xctoolchain/usr/bin/../include/c++/v1/deque:2790:0
	movq	-848(%rbp), %rax        ## 8-byte Reload
	movq	%rax, -664(%rbp)
	movq	-664(%rbp), %rax
	.loc	9 109 0                 ## /Applications/Xcode.app/Contents/Developer/Toolchains/XcodeDefault.xctoolchain/usr/bin/../include/c++/v1/__split_buffer:109:0
Ltmp381:
	movq	16(%rax), %rcx
	addq	$-8, %rcx
	movq	%rax, -640(%rbp)
	movq	%rcx, -648(%rbp)
	movq	-640(%rbp), %rax
	.loc	9 136 0                 ## /Applications/Xcode.app/Contents/Developer/Toolchains/XcodeDefault.xctoolchain/usr/bin/../include/c++/v1/__split_buffer:136:0
Ltmp382:
	movq	-648(%rbp), %rcx
	movq	%rax, -624(%rbp)
	movq	%rcx, -632(%rbp)
	movq	-624(%rbp), %rax
	movq	%rax, -936(%rbp)        ## 8-byte Spill
LBB14_24:                               ##   Parent Loop BB14_19 Depth=1
                                        ## =>  This Inner Loop Header: Depth=2
	.loc	9 309 0                 ## /Applications/Xcode.app/Contents/Developer/Toolchains/XcodeDefault.xctoolchain/usr/bin/../include/c++/v1/__split_buffer:309:0
Ltmp383:
	movq	-632(%rbp), %rax
	movq	-936(%rbp), %rcx        ## 8-byte Reload
	cmpq	16(%rcx), %rax
	je	LBB14_26
## BB#25:                               ##   in Loop: Header=BB14_24 Depth=2
	movq	-936(%rbp), %rax        ## 8-byte Reload
	movq	%rax, -608(%rbp)
	movq	-608(%rbp), %rcx
	.loc	9 54 0                  ## /Applications/Xcode.app/Contents/Developer/Toolchains/XcodeDefault.xctoolchain/usr/bin/../include/c++/v1/__split_buffer:54:0
Ltmp384:
	addq	$24, %rcx
	movq	%rcx, -600(%rbp)
	movq	-600(%rbp), %rcx
	movq	%rcx, -592(%rbp)
	movq	-592(%rbp), %rcx
Ltmp385:
	.loc	9 310 44                ## /Applications/Xcode.app/Contents/Developer/Toolchains/XcodeDefault.xctoolchain/usr/bin/../include/c++/v1/__split_buffer:310:44
	movq	16(%rax), %rdx
	addq	$-8, %rdx
	movq	%rdx, 16(%rax)
	movq	%rdx, -584(%rbp)
	.loc	4 1039 0                ## /Applications/Xcode.app/Contents/Developer/Toolchains/XcodeDefault.xctoolchain/usr/bin/../include/c++/v1/memory:1039:0
Ltmp386:
	movq	-584(%rbp), %rdx
	movq	%rcx, -552(%rbp)
	movq	%rdx, -560(%rbp)
Ltmp387:
	.loc	4 1483 0                ## /Applications/Xcode.app/Contents/Developer/Toolchains/XcodeDefault.xctoolchain/usr/bin/../include/c++/v1/memory:1483:0
	movq	-552(%rbp), %rcx
	movq	-560(%rbp), %rdx
	movq	%rcx, -536(%rbp)
	movq	%rdx, -544(%rbp)
	.loc	4 1580 0                ## /Applications/Xcode.app/Contents/Developer/Toolchains/XcodeDefault.xctoolchain/usr/bin/../include/c++/v1/memory:1580:0
Ltmp388:
	movq	-536(%rbp), %rcx
	movq	-544(%rbp), %rdx
	movq	%rcx, -512(%rbp)
	movq	%rdx, -520(%rbp)
Ltmp389:
	.loc	9 310 0                 ## /Applications/Xcode.app/Contents/Developer/Toolchains/XcodeDefault.xctoolchain/usr/bin/../include/c++/v1/__split_buffer:310:0
	jmp	LBB14_24
Ltmp390:
LBB14_26:                               ## %_ZNSt3__114__split_bufferIPiNS_9allocatorIS1_EEE8pop_backEv.exit
                                        ##   in Loop: Header=BB14_19 Depth=1
	.loc	3 2791 0                ## /Applications/Xcode.app/Contents/Developer/Toolchains/XcodeDefault.xctoolchain/usr/bin/../include/c++/v1/deque:2791:0
	jmp	LBB14_19
Ltmp391:
LBB14_27:
	.loc	3 2792 0                ## /Applications/Xcode.app/Contents/Developer/Toolchains/XcodeDefault.xctoolchain/usr/bin/../include/c++/v1/deque:2792:0
	jmp	LBB14_28
Ltmp392:
LBB14_28:
	.loc	3 2793 0                ## /Applications/Xcode.app/Contents/Developer/Toolchains/XcodeDefault.xctoolchain/usr/bin/../include/c++/v1/deque:2793:0
	addq	$944, %rsp              ## imm = 0x3B0
	popq	%rbp
	retq
Ltmp393:
Lfunc_end14:
	.cfi_endproc

	.globl	__ZNSt3__112__deque_baseIiNS_9allocatorIiEEE3endEv
	.weak_def_can_be_hidden	__ZNSt3__112__deque_baseIiNS_9allocatorIiEEE3endEv
	.align	4, 0x90
__ZNSt3__112__deque_baseIiNS_9allocatorIiEEE3endEv: ## @_ZNSt3__112__deque_baseIiNS_9allocatorIiEEE3endEv
Lfunc_begin15:
	.loc	3 1075 0                ## /Applications/Xcode.app/Contents/Developer/Toolchains/XcodeDefault.xctoolchain/usr/bin/../include/c++/v1/deque:1075:0
	.cfi_startproc
## BB#0:
	pushq	%rbp
Ltmp396:
	.cfi_def_cfa_offset 16
Ltmp397:
	.cfi_offset %rbp, -16
	movq	%rsp, %rbp
Ltmp398:
	.cfi_def_cfa_register %rbp
	subq	$40, %rsp
	movq	%rdi, -112(%rbp)
	movq	-112(%rbp), %rdi
	movq	%rdi, -88(%rbp)
	movq	-88(%rbp), %rax
	.loc	3 947 0 prologue_end    ## /Applications/Xcode.app/Contents/Developer/Toolchains/XcodeDefault.xctoolchain/usr/bin/../include/c++/v1/deque:947:0
Ltmp399:
	addq	$40, %rax
	movq	%rax, -80(%rbp)
	movq	-80(%rbp), %rax
	movq	%rax, -72(%rbp)
	movq	-72(%rbp), %rax
	movq	%rdi, -136(%rbp)        ## 8-byte Spill
	movq	%rax, -144(%rbp)        ## 8-byte Spill
Ltmp400:
## BB#1:
	.loc	3 1076 0                ## /Applications/Xcode.app/Contents/Developer/Toolchains/XcodeDefault.xctoolchain/usr/bin/../include/c++/v1/deque:1076:0
	movq	-144(%rbp), %rax        ## 8-byte Reload
	movq	(%rax), %rcx
	movq	-136(%rbp), %rdx        ## 8-byte Reload
	addq	32(%rdx), %rcx
	movq	%rcx, -120(%rbp)
	movq	%rdx, -64(%rbp)
	movq	-64(%rbp), %rcx
	.loc	9 76 0                  ## /Applications/Xcode.app/Contents/Developer/Toolchains/XcodeDefault.xctoolchain/usr/bin/../include/c++/v1/__split_buffer:76:0
Ltmp401:
	movq	8(%rcx), %rcx
Ltmp402:
	.loc	3 1077 0                ## /Applications/Xcode.app/Contents/Developer/Toolchains/XcodeDefault.xctoolchain/usr/bin/../include/c++/v1/deque:1077:0
	movq	-120(%rbp), %rsi
	shrq	$10, %rsi
	shlq	$3, %rsi
	addq	%rsi, %rcx
	movq	%rcx, -128(%rbp)
	.loc	3 1078 0                ## /Applications/Xcode.app/Contents/Developer/Toolchains/XcodeDefault.xctoolchain/usr/bin/../include/c++/v1/deque:1078:0
	movq	-128(%rbp), %rcx
	movq	%rdx, -8(%rbp)
	movq	-8(%rbp), %rsi
	.loc	9 85 0                  ## /Applications/Xcode.app/Contents/Developer/Toolchains/XcodeDefault.xctoolchain/usr/bin/../include/c++/v1/__split_buffer:85:0
Ltmp403:
	movq	16(%rsi), %rdi
	cmpq	8(%rsi), %rdi
	sete	%r8b
	movq	%rcx, -152(%rbp)        ## 8-byte Spill
	movb	%r8b, -153(%rbp)        ## 1-byte Spill
Ltmp404:
## BB#2:
	.loc	3 1078 0                ## /Applications/Xcode.app/Contents/Developer/Toolchains/XcodeDefault.xctoolchain/usr/bin/../include/c++/v1/deque:1078:0
	movb	-153(%rbp), %al         ## 1-byte Reload
	testb	$1, %al
	jne	LBB15_3
	jmp	LBB15_4
LBB15_3:
	movabsq	$0, %rax
	movq	%rax, -168(%rbp)        ## 8-byte Spill
	jmp	LBB15_5
LBB15_4:
	movq	-128(%rbp), %rax
	movq	(%rax), %rax
	movq	-120(%rbp), %rcx
	andq	$1023, %rcx             ## imm = 0x3FF
	shlq	$2, %rcx
	addq	%rcx, %rax
	movq	%rax, -168(%rbp)        ## 8-byte Spill
LBB15_5:
	movq	-168(%rbp), %rax        ## 8-byte Reload
	leaq	-104(%rbp), %rcx
	movq	%rcx, -40(%rbp)
	movq	-152(%rbp), %rcx        ## 8-byte Reload
	movq	%rcx, -48(%rbp)
	movq	%rax, -56(%rbp)
	movq	-40(%rbp), %rdx
	.loc	3 415 0                 ## /Applications/Xcode.app/Contents/Developer/Toolchains/XcodeDefault.xctoolchain/usr/bin/../include/c++/v1/deque:415:0
Ltmp405:
	movq	-48(%rbp), %rsi
	movq	%rdx, -16(%rbp)
	movq	%rsi, -24(%rbp)
	movq	%rax, -32(%rbp)
	movq	-16(%rbp), %rax
	.loc	3 415 0                 ## /Applications/Xcode.app/Contents/Developer/Toolchains/XcodeDefault.xctoolchain/usr/bin/../include/c++/v1/deque:415:0
Ltmp406:
	movq	-24(%rbp), %rdx
	movq	%rdx, (%rax)
	movq	-32(%rbp), %rdx
	movq	%rdx, 8(%rax)
Ltmp407:
	.loc	3 1078 0                ## /Applications/Xcode.app/Contents/Developer/Toolchains/XcodeDefault.xctoolchain/usr/bin/../include/c++/v1/deque:1078:0
	movq	-104(%rbp), %rax
	movq	-96(%rbp), %rdx
	addq	$40, %rsp
	popq	%rbp
	retq
Ltmp408:
Lfunc_end15:
	.cfi_endproc

	.globl	__ZNSt3__15dequeIiNS_9allocatorIiEEE19__add_back_capacityEm
	.weak_def_can_be_hidden	__ZNSt3__15dequeIiNS_9allocatorIiEEE19__add_back_capacityEm
	.align	4, 0x90
__ZNSt3__15dequeIiNS_9allocatorIiEEE19__add_back_capacityEm: ## @_ZNSt3__15dequeIiNS_9allocatorIiEEE19__add_back_capacityEm
Lfunc_begin16:
	.loc	3 2448 0                ## /Applications/Xcode.app/Contents/Developer/Toolchains/XcodeDefault.xctoolchain/usr/bin/../include/c++/v1/deque:2448:0
	.cfi_startproc
	.cfi_personality 155, ___gxx_personality_v0
Leh_func_begin16:
	.cfi_lsda 16, Lexception16
## BB#0:
	pushq	%rbp
Ltmp436:
	.cfi_def_cfa_offset 16
Ltmp437:
	.cfi_offset %rbp, -16
	movq	%rsp, %rbp
Ltmp438:
	.cfi_def_cfa_register %rbp
	subq	$3840, %rsp             ## imm = 0xF00
	leaq	-3048(%rbp), %rax
	leaq	-3408(%rbp), %rcx
	leaq	-3416(%rbp), %rdx
	movq	%rdi, -3384(%rbp)
	movq	%rsi, -3392(%rbp)
	movq	-3384(%rbp), %rsi
	.loc	3 2449 0 prologue_end   ## /Applications/Xcode.app/Contents/Developer/Toolchains/XcodeDefault.xctoolchain/usr/bin/../include/c++/v1/deque:2449:0
Ltmp439:
	movq	%rsi, %rdi
	movq	%rdi, -3376(%rbp)
	movq	-3376(%rbp), %rdi
	.loc	3 950 0                 ## /Applications/Xcode.app/Contents/Developer/Toolchains/XcodeDefault.xctoolchain/usr/bin/../include/c++/v1/deque:950:0
Ltmp440:
	addq	$40, %rdi
	movq	%rdi, -3368(%rbp)
	movq	-3368(%rbp), %rdi
	movq	%rdi, -3360(%rbp)
	movq	-3360(%rbp), %rdi
Ltmp441:
	.loc	3 2449 0                ## /Applications/Xcode.app/Contents/Developer/Toolchains/XcodeDefault.xctoolchain/usr/bin/../include/c++/v1/deque:2449:0
	movq	%rdi, -3400(%rbp)
Ltmp442:
	##DEBUG_VALUE: __add_back_capacity:__nb <- RCX
	.loc	3 2450 0                ## /Applications/Xcode.app/Contents/Developer/Toolchains/XcodeDefault.xctoolchain/usr/bin/../include/c++/v1/deque:2450:0
	movq	-3392(%rbp), %rdi
	movq	%rsi, %r8
	movq	%r8, -3352(%rbp)
	movq	-3352(%rbp), %r8
	.loc	9 85 0                  ## /Applications/Xcode.app/Contents/Developer/Toolchains/XcodeDefault.xctoolchain/usr/bin/../include/c++/v1/__split_buffer:85:0
Ltmp443:
	movq	16(%r8), %r9
	cmpq	8(%r8), %r9
	sete	%r10b
Ltmp444:
	.loc	3 2450 0                ## /Applications/Xcode.app/Contents/Developer/Toolchains/XcodeDefault.xctoolchain/usr/bin/../include/c++/v1/deque:2450:0
	andb	$1, %r10b
	movzbl	%r10b, %r11d
	movl	%r11d, %r8d
	addq	%r8, %rdi
	movq	%rdi, -3344(%rbp)
	.loc	3 1364 0                ## /Applications/Xcode.app/Contents/Developer/Toolchains/XcodeDefault.xctoolchain/usr/bin/../include/c++/v1/deque:1364:0
Ltmp445:
	movq	-3344(%rbp), %rdi
	shrq	$10, %rdi
	movq	-3344(%rbp), %r8
	andq	$1023, %r8              ## imm = 0x3FF
	cmpq	$0, %r8
	setne	%r10b
	andb	$1, %r10b
	movzbl	%r10b, %r11d
	movl	%r11d, %r8d
	addq	%r8, %rdi
Ltmp446:
	.loc	3 2450 0                ## /Applications/Xcode.app/Contents/Developer/Toolchains/XcodeDefault.xctoolchain/usr/bin/../include/c++/v1/deque:2450:0
	movq	%rdi, -3408(%rbp)
Ltmp447:
	##DEBUG_VALUE: __add_back_capacity:__front_capacity <- RDX
	movq	%rsi, -3336(%rbp)
	movq	-3336(%rbp), %rdi
	.loc	3 1374 0                ## /Applications/Xcode.app/Contents/Developer/Toolchains/XcodeDefault.xctoolchain/usr/bin/../include/c++/v1/deque:1374:0
Ltmp448:
	movq	32(%rdi), %rdi
Ltmp449:
	.loc	3 2452 0                ## /Applications/Xcode.app/Contents/Developer/Toolchains/XcodeDefault.xctoolchain/usr/bin/../include/c++/v1/deque:2452:0
	shrq	$10, %rdi
	movq	%rdi, -3416(%rbp)
	movq	%rdx, -3072(%rbp)
	movq	%rcx, -3080(%rbp)
	.loc	15 2546 12              ## /Applications/Xcode.app/Contents/Developer/Toolchains/XcodeDefault.xctoolchain/usr/bin/../include/c++/v1/algorithm:2546:12
Ltmp450:
	movq	-3072(%rbp), %rcx
Ltmp451:
	movq	-3080(%rbp), %rdx
Ltmp452:
	movq	%rcx, -3056(%rbp)
	movq	%rdx, -3064(%rbp)
Ltmp453:
	##DEBUG_VALUE: min<unsigned long, std::__1::__less<unsigned long, unsigned long> >:__comp <- RAX
	.loc	15 2538 0               ## /Applications/Xcode.app/Contents/Developer/Toolchains/XcodeDefault.xctoolchain/usr/bin/../include/c++/v1/algorithm:2538:0
	movq	-3064(%rbp), %rcx
	movq	-3056(%rbp), %rdx
	movq	%rax, -3024(%rbp)
	movq	%rcx, -3032(%rbp)
	movq	%rdx, -3040(%rbp)
	.loc	15 685 0                ## /Applications/Xcode.app/Contents/Developer/Toolchains/XcodeDefault.xctoolchain/usr/bin/../include/c++/v1/algorithm:685:0
Ltmp454:
	movq	-3032(%rbp), %rax
Ltmp455:
	movq	(%rax), %rax
	movq	-3040(%rbp), %rcx
Ltmp456:
	.loc	15 2538 0               ## /Applications/Xcode.app/Contents/Developer/Toolchains/XcodeDefault.xctoolchain/usr/bin/../include/c++/v1/algorithm:2538:0
	cmpq	(%rcx), %rax
	movq	%rsi, -3560(%rbp)       ## 8-byte Spill
	jae	LBB16_2
## BB#1:
	movq	-3064(%rbp), %rax
	movq	%rax, -3568(%rbp)       ## 8-byte Spill
	jmp	LBB16_3
LBB16_2:
	movq	-3056(%rbp), %rax
	movq	%rax, -3568(%rbp)       ## 8-byte Spill
LBB16_3:                                ## %_ZNSt3__13minImEERKT_S3_S3_.exit
	movq	-3568(%rbp), %rax       ## 8-byte Reload
Ltmp457:
	.loc	3 2453 24               ## /Applications/Xcode.app/Contents/Developer/Toolchains/XcodeDefault.xctoolchain/usr/bin/../include/c++/v1/deque:2453:24
	movq	(%rax), %rax
	movq	%rax, -3416(%rbp)
	.loc	3 2454 0                ## /Applications/Xcode.app/Contents/Developer/Toolchains/XcodeDefault.xctoolchain/usr/bin/../include/c++/v1/deque:2454:0
	movq	-3416(%rbp), %rax
	movq	-3408(%rbp), %rcx
	subq	%rax, %rcx
	movq	%rcx, -3408(%rbp)
	.loc	3 2456 0                ## /Applications/Xcode.app/Contents/Developer/Toolchains/XcodeDefault.xctoolchain/usr/bin/../include/c++/v1/deque:2456:0
Ltmp458:
	cmpq	$0, -3408(%rbp)
	jne	LBB16_21
## BB#4:
	.loc	3 2458 0                ## /Applications/Xcode.app/Contents/Developer/Toolchains/XcodeDefault.xctoolchain/usr/bin/../include/c++/v1/deque:2458:0
Ltmp459:
	movq	-3416(%rbp), %rax
	shlq	$10, %rax
	movq	-3560(%rbp), %rcx       ## 8-byte Reload
	movq	32(%rcx), %rdx
	subq	%rax, %rdx
	movq	%rdx, 32(%rcx)
LBB16_5:                                ## =>This Inner Loop Header: Depth=1
	.loc	3 2459 0                ## /Applications/Xcode.app/Contents/Developer/Toolchains/XcodeDefault.xctoolchain/usr/bin/../include/c++/v1/deque:2459:0
Ltmp460:
	cmpq	$0, -3416(%rbp)
	jbe	LBB16_20
## BB#6:                                ##   in Loop: Header=BB16_5 Depth=1
	leaq	-3424(%rbp), %rax
Ltmp461:
	##DEBUG_VALUE: __pt <- RAX
	.loc	3 2461 0                ## /Applications/Xcode.app/Contents/Developer/Toolchains/XcodeDefault.xctoolchain/usr/bin/../include/c++/v1/deque:2461:0
	movq	-3560(%rbp), %rcx       ## 8-byte Reload
	movq	%rcx, -2144(%rbp)
	movq	-2144(%rbp), %rcx
	.loc	9 90 0                  ## /Applications/Xcode.app/Contents/Developer/Toolchains/XcodeDefault.xctoolchain/usr/bin/../include/c++/v1/__split_buffer:90:0
Ltmp462:
	movq	8(%rcx), %rcx
Ltmp463:
	.loc	3 2461 0                ## /Applications/Xcode.app/Contents/Developer/Toolchains/XcodeDefault.xctoolchain/usr/bin/../include/c++/v1/deque:2461:0
	movq	(%rcx), %rcx
	movq	%rcx, -3424(%rbp)
	.loc	3 2462 0                ## /Applications/Xcode.app/Contents/Developer/Toolchains/XcodeDefault.xctoolchain/usr/bin/../include/c++/v1/deque:2462:0
	movq	-3560(%rbp), %rcx       ## 8-byte Reload
	movq	%rcx, -2136(%rbp)
	movq	-2136(%rbp), %rcx
	.loc	9 108 0                 ## /Applications/Xcode.app/Contents/Developer/Toolchains/XcodeDefault.xctoolchain/usr/bin/../include/c++/v1/__split_buffer:108:0
Ltmp464:
	movq	8(%rcx), %rdx
	addq	$8, %rdx
	movq	%rcx, -2104(%rbp)
	movq	%rdx, -2112(%rbp)
	movq	-2104(%rbp), %rcx
	.loc	9 130 0                 ## /Applications/Xcode.app/Contents/Developer/Toolchains/XcodeDefault.xctoolchain/usr/bin/../include/c++/v1/__split_buffer:130:0
Ltmp465:
	movq	-2112(%rbp), %rdx
	movq	%rcx, -2088(%rbp)
	movq	%rdx, -2096(%rbp)
	movq	-2088(%rbp), %rcx
	.loc	9 301 0                 ## /Applications/Xcode.app/Contents/Developer/Toolchains/XcodeDefault.xctoolchain/usr/bin/../include/c++/v1/__split_buffer:301:0
Ltmp466:
	movq	-2096(%rbp), %rdx
	movq	%rdx, 8(%rcx)
Ltmp467:
	.loc	3 2463 0                ## /Applications/Xcode.app/Contents/Developer/Toolchains/XcodeDefault.xctoolchain/usr/bin/../include/c++/v1/deque:2463:0
	movq	-3560(%rbp), %rcx       ## 8-byte Reload
	movq	%rcx, -1968(%rbp)
	movq	%rax, -1976(%rbp)
	movq	-1968(%rbp), %rax
Ltmp468:
	.loc	9 548 0                 ## /Applications/Xcode.app/Contents/Developer/Toolchains/XcodeDefault.xctoolchain/usr/bin/../include/c++/v1/__split_buffer:548:0
	movq	16(%rax), %rcx
	movq	%rax, -1960(%rbp)
	movq	-1960(%rbp), %rdx
	.loc	9 56 0                  ## /Applications/Xcode.app/Contents/Developer/Toolchains/XcodeDefault.xctoolchain/usr/bin/../include/c++/v1/__split_buffer:56:0
Ltmp469:
	addq	$24, %rdx
	movq	%rdx, -1952(%rbp)
	movq	-1952(%rbp), %rdx
	movq	%rdx, -1944(%rbp)
	movq	-1944(%rbp), %rdx
Ltmp470:
	.loc	9 548 0                 ## /Applications/Xcode.app/Contents/Developer/Toolchains/XcodeDefault.xctoolchain/usr/bin/../include/c++/v1/__split_buffer:548:0
	cmpq	(%rdx), %rcx
	movq	%rax, -3576(%rbp)       ## 8-byte Spill
	jne	LBB16_16
## BB#7:                                ##   in Loop: Header=BB16_5 Depth=1
	.loc	9 550 0                 ## /Applications/Xcode.app/Contents/Developer/Toolchains/XcodeDefault.xctoolchain/usr/bin/../include/c++/v1/__split_buffer:550:0
	movq	-3576(%rbp), %rax       ## 8-byte Reload
	movq	8(%rax), %rcx
	cmpq	(%rax), %rcx
	jbe	LBB16_9
## BB#8:                                ##   in Loop: Header=BB16_5 Depth=1
	movabsq	$0, %rax
	movabsq	$2, %rcx
	.loc	9 552 0                 ## /Applications/Xcode.app/Contents/Developer/Toolchains/XcodeDefault.xctoolchain/usr/bin/../include/c++/v1/__split_buffer:552:0
	movq	-3576(%rbp), %rdx       ## 8-byte Reload
	movq	8(%rdx), %rsi
	movq	(%rdx), %rdi
	subq	%rdi, %rsi
	sarq	$3, %rsi
	movq	%rsi, -1984(%rbp)
	.loc	9 553 0                 ## /Applications/Xcode.app/Contents/Developer/Toolchains/XcodeDefault.xctoolchain/usr/bin/../include/c++/v1/__split_buffer:553:0
	movq	-1984(%rbp), %rsi
	addq	$1, %rsi
	movq	%rax, -3584(%rbp)       ## 8-byte Spill
	movq	%rsi, %rax
	cqto
	idivq	%rcx
	movq	%rax, -1984(%rbp)
	.loc	9 554 22                ## /Applications/Xcode.app/Contents/Developer/Toolchains/XcodeDefault.xctoolchain/usr/bin/../include/c++/v1/__split_buffer:554:22
	movq	-3576(%rbp), %rax       ## 8-byte Reload
	movq	8(%rax), %rcx
	movq	16(%rax), %rdx
	movq	8(%rax), %rsi
	movq	-3584(%rbp), %rdi       ## 8-byte Reload
	subq	-1984(%rbp), %rdi
	shlq	$3, %rdi
	addq	%rdi, %rsi
	movq	%rcx, -1768(%rbp)
	movq	%rdx, -1776(%rbp)
	movq	%rsi, -1784(%rbp)
	.loc	15 1873 26              ## /Applications/Xcode.app/Contents/Developer/Toolchains/XcodeDefault.xctoolchain/usr/bin/../include/c++/v1/algorithm:1873:26
Ltmp471:
	movq	-1768(%rbp), %rcx
	movq	%rcx, -1760(%rbp)
	.loc	15 1683 0               ## /Applications/Xcode.app/Contents/Developer/Toolchains/XcodeDefault.xctoolchain/usr/bin/../include/c++/v1/algorithm:1683:0
Ltmp472:
	movq	-1760(%rbp), %rcx
Ltmp473:
	.loc	15 1873 50              ## /Applications/Xcode.app/Contents/Developer/Toolchains/XcodeDefault.xctoolchain/usr/bin/../include/c++/v1/algorithm:1873:50
	movq	-1776(%rbp), %rdx
	movq	%rdx, -1712(%rbp)
	.loc	15 1683 0               ## /Applications/Xcode.app/Contents/Developer/Toolchains/XcodeDefault.xctoolchain/usr/bin/../include/c++/v1/algorithm:1683:0
Ltmp474:
	movq	-1712(%rbp), %rdx
Ltmp475:
	.loc	15 1873 73              ## /Applications/Xcode.app/Contents/Developer/Toolchains/XcodeDefault.xctoolchain/usr/bin/../include/c++/v1/algorithm:1873:73
	movq	-1784(%rbp), %rsi
	movq	%rsi, -1720(%rbp)
	.loc	15 1683 0               ## /Applications/Xcode.app/Contents/Developer/Toolchains/XcodeDefault.xctoolchain/usr/bin/../include/c++/v1/algorithm:1683:0
Ltmp476:
	movq	-1720(%rbp), %rsi
	movq	%rcx, -1728(%rbp)
	movq	%rdx, -1736(%rbp)
	movq	%rsi, -1744(%rbp)
Ltmp477:
	.loc	15 1863 0               ## /Applications/Xcode.app/Contents/Developer/Toolchains/XcodeDefault.xctoolchain/usr/bin/../include/c++/v1/algorithm:1863:0
	movq	-1736(%rbp), %rcx
	movq	-1728(%rbp), %rdx
	subq	%rdx, %rcx
	sarq	$3, %rcx
	movq	%rcx, -1752(%rbp)
	.loc	15 1864 0               ## /Applications/Xcode.app/Contents/Developer/Toolchains/XcodeDefault.xctoolchain/usr/bin/../include/c++/v1/algorithm:1864:0
	movq	-1744(%rbp), %rcx
	movq	-1728(%rbp), %rdx
	movq	-1752(%rbp), %rsi
	shlq	$3, %rsi
	movq	%rcx, %rdi
	movq	%rsi, -3592(%rbp)       ## 8-byte Spill
	movq	%rdx, %rsi
	movq	-3592(%rbp), %rdx       ## 8-byte Reload
	callq	_memmove
	.loc	15 1865 0               ## /Applications/Xcode.app/Contents/Developer/Toolchains/XcodeDefault.xctoolchain/usr/bin/../include/c++/v1/algorithm:1865:0
	movq	-1744(%rbp), %rax
	movq	-1752(%rbp), %rcx
	shlq	$3, %rcx
	addq	%rcx, %rax
Ltmp478:
	.loc	9 554 22                ## /Applications/Xcode.app/Contents/Developer/Toolchains/XcodeDefault.xctoolchain/usr/bin/../include/c++/v1/__split_buffer:554:22
	movq	-3576(%rbp), %rcx       ## 8-byte Reload
	movq	%rax, 16(%rcx)
	.loc	9 555 0                 ## /Applications/Xcode.app/Contents/Developer/Toolchains/XcodeDefault.xctoolchain/usr/bin/../include/c++/v1/__split_buffer:555:0
	movq	-1984(%rbp), %rax
	movq	8(%rcx), %rdx
	movq	-3584(%rbp), %rsi       ## 8-byte Reload
	subq	%rax, %rsi
	shlq	$3, %rsi
	addq	%rsi, %rdx
	movq	%rdx, 8(%rcx)
	.loc	9 556 0                 ## /Applications/Xcode.app/Contents/Developer/Toolchains/XcodeDefault.xctoolchain/usr/bin/../include/c++/v1/__split_buffer:556:0
	jmp	LBB16_15
LBB16_9:                                ##   in Loop: Header=BB16_5 Depth=1
	leaq	-1400(%rbp), %rax
	leaq	-2008(%rbp), %rcx
	leaq	-2000(%rbp), %rdx
	movq	-3576(%rbp), %rsi       ## 8-byte Reload
	movq	%rsi, -1704(%rbp)
	movq	-1704(%rbp), %rdi
	.loc	9 56 0                  ## /Applications/Xcode.app/Contents/Developer/Toolchains/XcodeDefault.xctoolchain/usr/bin/../include/c++/v1/__split_buffer:56:0
Ltmp479:
	addq	$24, %rdi
	movq	%rdi, -1696(%rbp)
	movq	-1696(%rbp), %rdi
	movq	%rdi, -1688(%rbp)
	movq	-1688(%rbp), %rdi
Ltmp480:
	.loc	9 559 0                 ## /Applications/Xcode.app/Contents/Developer/Toolchains/XcodeDefault.xctoolchain/usr/bin/../include/c++/v1/__split_buffer:559:0
	movq	(%rdi), %rdi
	movq	(%rsi), %r8
	subq	%r8, %rdi
	sarq	$3, %rdi
	shlq	$1, %rdi
	movq	%rdi, -2000(%rbp)
	.loc	9 559 29                ## /Applications/Xcode.app/Contents/Developer/Toolchains/XcodeDefault.xctoolchain/usr/bin/../include/c++/v1/__split_buffer:559:29
	movq	$1, -2008(%rbp)
	movq	%rdx, -1424(%rbp)
	movq	%rcx, -1432(%rbp)
	.loc	15 2610 12              ## /Applications/Xcode.app/Contents/Developer/Toolchains/XcodeDefault.xctoolchain/usr/bin/../include/c++/v1/algorithm:2610:12
Ltmp481:
	movq	-1424(%rbp), %rcx
	movq	-1432(%rbp), %rdx
	movq	%rcx, -1408(%rbp)
	movq	%rdx, -1416(%rbp)
Ltmp482:
	##DEBUG_VALUE: max<unsigned long, std::__1::__less<unsigned long, unsigned long> >:__comp <- RAX
	.loc	15 2602 0               ## /Applications/Xcode.app/Contents/Developer/Toolchains/XcodeDefault.xctoolchain/usr/bin/../include/c++/v1/algorithm:2602:0
	movq	-1408(%rbp), %rcx
	movq	-1416(%rbp), %rdx
	movq	%rax, -1376(%rbp)
	movq	%rcx, -1384(%rbp)
	movq	%rdx, -1392(%rbp)
	.loc	15 685 0                ## /Applications/Xcode.app/Contents/Developer/Toolchains/XcodeDefault.xctoolchain/usr/bin/../include/c++/v1/algorithm:685:0
Ltmp483:
	movq	-1384(%rbp), %rax
Ltmp484:
	movq	(%rax), %rax
	movq	-1392(%rbp), %rcx
Ltmp485:
	.loc	15 2602 0               ## /Applications/Xcode.app/Contents/Developer/Toolchains/XcodeDefault.xctoolchain/usr/bin/../include/c++/v1/algorithm:2602:0
	cmpq	(%rcx), %rax
	jae	LBB16_11
## BB#10:                               ##   in Loop: Header=BB16_5 Depth=1
	movq	-1416(%rbp), %rax
	movq	%rax, -3600(%rbp)       ## 8-byte Spill
	jmp	LBB16_12
LBB16_11:                               ##   in Loop: Header=BB16_5 Depth=1
	movq	-1408(%rbp), %rax
	movq	%rax, -3600(%rbp)       ## 8-byte Spill
LBB16_12:                               ## %_ZNSt3__13maxImEERKT_S3_S3_.exit.i16
                                        ##   in Loop: Header=BB16_5 Depth=1
	movq	-3600(%rbp), %rax       ## 8-byte Reload
Ltmp486:
	.loc	9 559 29                ## /Applications/Xcode.app/Contents/Developer/Toolchains/XcodeDefault.xctoolchain/usr/bin/../include/c++/v1/__split_buffer:559:29
	movq	(%rax), %rax
	movq	%rax, -1992(%rbp)
Ltmp487:
	##DEBUG_VALUE: __t <- [RBP+-2048]
	.loc	9 560 0                 ## /Applications/Xcode.app/Contents/Developer/Toolchains/XcodeDefault.xctoolchain/usr/bin/../include/c++/v1/__split_buffer:560:0
	movq	%rax, %rcx
	shrq	$2, %rcx
	movq	-3576(%rbp), %rdx       ## 8-byte Reload
	movq	%rdx, -1304(%rbp)
	.loc	9 54 0                  ## /Applications/Xcode.app/Contents/Developer/Toolchains/XcodeDefault.xctoolchain/usr/bin/../include/c++/v1/__split_buffer:54:0
Ltmp488:
	addq	$24, %rdx
	movq	%rdx, -1296(%rbp)
	movq	%rdx, -1288(%rbp)
	leaq	-2048(%rbp), %rsi
Ltmp489:
	.loc	9 560 0                 ## /Applications/Xcode.app/Contents/Developer/Toolchains/XcodeDefault.xctoolchain/usr/bin/../include/c++/v1/__split_buffer:560:0
	movq	%rsi, %rdi
	movq	%rsi, -3608(%rbp)       ## 8-byte Spill
	movq	%rax, %rsi
	movq	%rdx, -3616(%rbp)       ## 8-byte Spill
	movq	%rcx, %rdx
	movq	-3616(%rbp), %rcx       ## 8-byte Reload
	callq	__ZNSt3__114__split_bufferIPiRNS_9allocatorIS1_EEEC1EmmS4_
	.loc	9 561 0                 ## /Applications/Xcode.app/Contents/Developer/Toolchains/XcodeDefault.xctoolchain/usr/bin/../include/c++/v1/__split_buffer:561:0
	movq	-3576(%rbp), %rax       ## 8-byte Reload
	movq	8(%rax), %rcx
	leaq	-2056(%rbp), %rdx
	movq	%rdx, -1328(%rbp)
	movq	%rcx, -1336(%rbp)
	movq	-1328(%rbp), %rdx
	movq	%rdx, -1312(%rbp)
	movq	%rcx, -1320(%rbp)
	movq	-1312(%rbp), %rdx
	.loc	14 935 0                ## /Applications/Xcode.app/Contents/Developer/Toolchains/XcodeDefault.xctoolchain/usr/bin/../include/c++/v1/iterator:935:0
Ltmp490:
	movq	%rcx, (%rdx)
Ltmp491:
	.loc	9 561 0                 ## /Applications/Xcode.app/Contents/Developer/Toolchains/XcodeDefault.xctoolchain/usr/bin/../include/c++/v1/__split_buffer:561:0
	movq	16(%rax), %rcx
	leaq	-2080(%rbp), %rdx
	movq	%rdx, -1360(%rbp)
	movq	%rcx, -1368(%rbp)
	movq	-1360(%rbp), %rdx
	movq	%rdx, -1344(%rbp)
	movq	%rcx, -1352(%rbp)
	movq	-1344(%rbp), %rdx
	.loc	14 935 0                ## /Applications/Xcode.app/Contents/Developer/Toolchains/XcodeDefault.xctoolchain/usr/bin/../include/c++/v1/iterator:935:0
Ltmp492:
	movq	%rcx, (%rdx)
Ltmp493:
	.loc	9 561 0                 ## /Applications/Xcode.app/Contents/Developer/Toolchains/XcodeDefault.xctoolchain/usr/bin/../include/c++/v1/__split_buffer:561:0
	movq	-2056(%rbp), %rsi
	movq	-2080(%rbp), %rdx
Ltmp431:
	movq	-3608(%rbp), %rdi       ## 8-byte Reload
	callq	__ZNSt3__114__split_bufferIPiRNS_9allocatorIS1_EEE18__construct_at_endINS_13move_iteratorIPS1_EEEENS_9enable_ifIXsr21__is_forward_iteratorIT_EE5valueEvE4typeESB_SB_
Ltmp432:
	jmp	LBB16_13
Ltmp494:
LBB16_13:                               ##   in Loop: Header=BB16_5 Depth=1
	leaq	-2048(%rbp), %rax
	leaq	-1680(%rbp), %rcx
	leaq	-1584(%rbp), %rdx
	leaq	-1536(%rbp), %rsi
	leaq	-1488(%rbp), %rdi
	movq	-3576(%rbp), %r8        ## 8-byte Reload
	movq	%r8, -1472(%rbp)
	movq	%rax, -1480(%rbp)
Ltmp495:
	##DEBUG_VALUE: __t <- RDI
	.loc	7 3204 13               ## /Applications/Xcode.app/Contents/Developer/Toolchains/XcodeDefault.xctoolchain/usr/bin/../include/c++/v1/type_traits:3204:13
	movq	-1472(%rbp), %r9
	movq	%r9, -1464(%rbp)
	.loc	7 1541 0                ## /Applications/Xcode.app/Contents/Developer/Toolchains/XcodeDefault.xctoolchain/usr/bin/../include/c++/v1/type_traits:1541:0
Ltmp496:
	movq	-1464(%rbp), %r9
Ltmp497:
	.loc	7 3204 13               ## /Applications/Xcode.app/Contents/Developer/Toolchains/XcodeDefault.xctoolchain/usr/bin/../include/c++/v1/type_traits:3204:13
	movq	(%r9), %r9
	movq	%r9, -1488(%rbp)
	.loc	7 3205 11               ## /Applications/Xcode.app/Contents/Developer/Toolchains/XcodeDefault.xctoolchain/usr/bin/../include/c++/v1/type_traits:3205:11
	movq	-1480(%rbp), %r9
	movq	%r9, -1448(%rbp)
	.loc	7 1541 0                ## /Applications/Xcode.app/Contents/Developer/Toolchains/XcodeDefault.xctoolchain/usr/bin/../include/c++/v1/type_traits:1541:0
Ltmp498:
	movq	-1448(%rbp), %r9
Ltmp499:
	.loc	7 3205 11               ## /Applications/Xcode.app/Contents/Developer/Toolchains/XcodeDefault.xctoolchain/usr/bin/../include/c++/v1/type_traits:3205:11
	movq	(%r9), %r9
	movq	-1472(%rbp), %r10
	movq	%r9, (%r10)
	movq	%rdi, -1456(%rbp)
	.loc	7 1541 0                ## /Applications/Xcode.app/Contents/Developer/Toolchains/XcodeDefault.xctoolchain/usr/bin/../include/c++/v1/type_traits:1541:0
Ltmp500:
	movq	-1456(%rbp), %rdi
Ltmp501:
	.loc	7 3206 11               ## /Applications/Xcode.app/Contents/Developer/Toolchains/XcodeDefault.xctoolchain/usr/bin/../include/c++/v1/type_traits:3206:11
	movq	(%rdi), %rdi
	movq	-1480(%rbp), %r9
	movq	%rdi, (%r9)
Ltmp502:
	.loc	9 564 0                 ## /Applications/Xcode.app/Contents/Developer/Toolchains/XcodeDefault.xctoolchain/usr/bin/../include/c++/v1/__split_buffer:564:0
	addq	$8, %r8
	movq	%rax, %rdi
	addq	$8, %rdi
	movq	%r8, -1520(%rbp)
	movq	%rdi, -1528(%rbp)
Ltmp503:
	##DEBUG_VALUE: __t <- RSI
	.loc	7 3204 13               ## /Applications/Xcode.app/Contents/Developer/Toolchains/XcodeDefault.xctoolchain/usr/bin/../include/c++/v1/type_traits:3204:13
	movq	-1520(%rbp), %rdi
	movq	%rdi, -1512(%rbp)
	.loc	7 1541 0                ## /Applications/Xcode.app/Contents/Developer/Toolchains/XcodeDefault.xctoolchain/usr/bin/../include/c++/v1/type_traits:1541:0
Ltmp504:
	movq	-1512(%rbp), %rdi
Ltmp505:
	.loc	7 3204 13               ## /Applications/Xcode.app/Contents/Developer/Toolchains/XcodeDefault.xctoolchain/usr/bin/../include/c++/v1/type_traits:3204:13
	movq	(%rdi), %rdi
	movq	%rdi, -1536(%rbp)
	.loc	7 3205 11               ## /Applications/Xcode.app/Contents/Developer/Toolchains/XcodeDefault.xctoolchain/usr/bin/../include/c++/v1/type_traits:3205:11
	movq	-1528(%rbp), %rdi
	movq	%rdi, -1496(%rbp)
	.loc	7 1541 0                ## /Applications/Xcode.app/Contents/Developer/Toolchains/XcodeDefault.xctoolchain/usr/bin/../include/c++/v1/type_traits:1541:0
Ltmp506:
	movq	-1496(%rbp), %rdi
Ltmp507:
	.loc	7 3205 11               ## /Applications/Xcode.app/Contents/Developer/Toolchains/XcodeDefault.xctoolchain/usr/bin/../include/c++/v1/type_traits:3205:11
	movq	(%rdi), %rdi
	movq	-1520(%rbp), %r8
	movq	%rdi, (%r8)
	movq	%rsi, -1504(%rbp)
	.loc	7 1541 0                ## /Applications/Xcode.app/Contents/Developer/Toolchains/XcodeDefault.xctoolchain/usr/bin/../include/c++/v1/type_traits:1541:0
Ltmp508:
	movq	-1504(%rbp), %rsi
Ltmp509:
	.loc	7 3206 11               ## /Applications/Xcode.app/Contents/Developer/Toolchains/XcodeDefault.xctoolchain/usr/bin/../include/c++/v1/type_traits:3206:11
	movq	(%rsi), %rsi
	movq	-1528(%rbp), %rdi
	movq	%rsi, (%rdi)
Ltmp510:
	.loc	9 565 0                 ## /Applications/Xcode.app/Contents/Developer/Toolchains/XcodeDefault.xctoolchain/usr/bin/../include/c++/v1/__split_buffer:565:0
	movq	-3576(%rbp), %rsi       ## 8-byte Reload
	addq	$16, %rsi
	movq	%rax, %rdi
	addq	$16, %rdi
	movq	%rsi, -1568(%rbp)
	movq	%rdi, -1576(%rbp)
Ltmp511:
	##DEBUG_VALUE: __t <- RDX
	.loc	7 3204 13               ## /Applications/Xcode.app/Contents/Developer/Toolchains/XcodeDefault.xctoolchain/usr/bin/../include/c++/v1/type_traits:3204:13
	movq	-1568(%rbp), %rsi
	movq	%rsi, -1560(%rbp)
	.loc	7 1541 0                ## /Applications/Xcode.app/Contents/Developer/Toolchains/XcodeDefault.xctoolchain/usr/bin/../include/c++/v1/type_traits:1541:0
Ltmp512:
	movq	-1560(%rbp), %rsi
Ltmp513:
	.loc	7 3204 13               ## /Applications/Xcode.app/Contents/Developer/Toolchains/XcodeDefault.xctoolchain/usr/bin/../include/c++/v1/type_traits:3204:13
	movq	(%rsi), %rsi
	movq	%rsi, -1584(%rbp)
	.loc	7 3205 11               ## /Applications/Xcode.app/Contents/Developer/Toolchains/XcodeDefault.xctoolchain/usr/bin/../include/c++/v1/type_traits:3205:11
	movq	-1576(%rbp), %rsi
	movq	%rsi, -1544(%rbp)
	.loc	7 1541 0                ## /Applications/Xcode.app/Contents/Developer/Toolchains/XcodeDefault.xctoolchain/usr/bin/../include/c++/v1/type_traits:1541:0
Ltmp514:
	movq	-1544(%rbp), %rsi
Ltmp515:
	.loc	7 3205 11               ## /Applications/Xcode.app/Contents/Developer/Toolchains/XcodeDefault.xctoolchain/usr/bin/../include/c++/v1/type_traits:3205:11
	movq	(%rsi), %rsi
	movq	-1568(%rbp), %rdi
	movq	%rsi, (%rdi)
	movq	%rdx, -1552(%rbp)
	.loc	7 1541 0                ## /Applications/Xcode.app/Contents/Developer/Toolchains/XcodeDefault.xctoolchain/usr/bin/../include/c++/v1/type_traits:1541:0
Ltmp516:
	movq	-1552(%rbp), %rdx
Ltmp517:
	.loc	7 3206 11               ## /Applications/Xcode.app/Contents/Developer/Toolchains/XcodeDefault.xctoolchain/usr/bin/../include/c++/v1/type_traits:3206:11
	movq	(%rdx), %rdx
	movq	-1576(%rbp), %rsi
	movq	%rdx, (%rsi)
	movq	-3576(%rbp), %rdx       ## 8-byte Reload
	movq	%rdx, -1608(%rbp)
	movq	-1608(%rbp), %rsi
Ltmp518:
	.loc	9 56 0                  ## /Applications/Xcode.app/Contents/Developer/Toolchains/XcodeDefault.xctoolchain/usr/bin/../include/c++/v1/__split_buffer:56:0
	addq	$24, %rsi
	movq	%rsi, -1600(%rbp)
	movq	-1600(%rbp), %rsi
	movq	%rsi, -1592(%rbp)
	movq	-1592(%rbp), %rsi
	movq	%rax, -1632(%rbp)
	movq	-1632(%rbp), %rdi
	.loc	9 56 0                  ## /Applications/Xcode.app/Contents/Developer/Toolchains/XcodeDefault.xctoolchain/usr/bin/../include/c++/v1/__split_buffer:56:0
	addq	$24, %rdi
	movq	%rdi, -1624(%rbp)
	movq	-1624(%rbp), %rdi
	movq	%rdi, -1616(%rbp)
	movq	-1616(%rbp), %rdi
	movq	%rsi, -1664(%rbp)
	movq	%rdi, -1672(%rbp)
Ltmp519:
	##DEBUG_VALUE: __t <- RCX
	.loc	7 3204 13               ## /Applications/Xcode.app/Contents/Developer/Toolchains/XcodeDefault.xctoolchain/usr/bin/../include/c++/v1/type_traits:3204:13
	movq	-1664(%rbp), %rsi
	movq	%rsi, -1656(%rbp)
	.loc	7 1541 0                ## /Applications/Xcode.app/Contents/Developer/Toolchains/XcodeDefault.xctoolchain/usr/bin/../include/c++/v1/type_traits:1541:0
Ltmp520:
	movq	-1656(%rbp), %rsi
Ltmp521:
	.loc	7 3204 13               ## /Applications/Xcode.app/Contents/Developer/Toolchains/XcodeDefault.xctoolchain/usr/bin/../include/c++/v1/type_traits:3204:13
	movq	(%rsi), %rsi
	movq	%rsi, -1680(%rbp)
	.loc	7 3205 11               ## /Applications/Xcode.app/Contents/Developer/Toolchains/XcodeDefault.xctoolchain/usr/bin/../include/c++/v1/type_traits:3205:11
	movq	-1672(%rbp), %rsi
	movq	%rsi, -1640(%rbp)
	.loc	7 1541 0                ## /Applications/Xcode.app/Contents/Developer/Toolchains/XcodeDefault.xctoolchain/usr/bin/../include/c++/v1/type_traits:1541:0
Ltmp522:
	movq	-1640(%rbp), %rsi
Ltmp523:
	.loc	7 3205 11               ## /Applications/Xcode.app/Contents/Developer/Toolchains/XcodeDefault.xctoolchain/usr/bin/../include/c++/v1/type_traits:3205:11
	movq	(%rsi), %rsi
	movq	-1664(%rbp), %rdi
	movq	%rsi, (%rdi)
	movq	%rcx, -1648(%rbp)
	.loc	7 1541 0                ## /Applications/Xcode.app/Contents/Developer/Toolchains/XcodeDefault.xctoolchain/usr/bin/../include/c++/v1/type_traits:1541:0
Ltmp524:
	movq	-1648(%rbp), %rcx
Ltmp525:
	.loc	7 3206 11               ## /Applications/Xcode.app/Contents/Developer/Toolchains/XcodeDefault.xctoolchain/usr/bin/../include/c++/v1/type_traits:3206:11
	movq	(%rcx), %rcx
	movq	-1672(%rbp), %rsi
	movq	%rcx, (%rsi)
Ltmp526:
	.loc	9 567 0                 ## /Applications/Xcode.app/Contents/Developer/Toolchains/XcodeDefault.xctoolchain/usr/bin/../include/c++/v1/__split_buffer:567:0
	movq	%rax, %rdi
	callq	__ZNSt3__114__split_bufferIPiRNS_9allocatorIS1_EEED1Ev
	jmp	LBB16_15
LBB16_14:
Ltmp433:
	leaq	-2048(%rbp), %rdi
	.loc	9 571 0                 ## /Applications/Xcode.app/Contents/Developer/Toolchains/XcodeDefault.xctoolchain/usr/bin/../include/c++/v1/__split_buffer:571:0
	movl	%edx, %ecx
	movq	%rax, -2064(%rbp)
	movl	%ecx, -2068(%rbp)
	.loc	9 571 0                 ## /Applications/Xcode.app/Contents/Developer/Toolchains/XcodeDefault.xctoolchain/usr/bin/../include/c++/v1/__split_buffer:571:0
	callq	__ZNSt3__114__split_bufferIPiRNS_9allocatorIS1_EEED1Ev
	movq	-2064(%rbp), %rax
	movq	%rax, -3624(%rbp)       ## 8-byte Spill
	jmp	LBB16_101
LBB16_15:                               ##   in Loop: Header=BB16_5 Depth=1
	.loc	9 568 0                 ## /Applications/Xcode.app/Contents/Developer/Toolchains/XcodeDefault.xctoolchain/usr/bin/../include/c++/v1/__split_buffer:568:0
	jmp	LBB16_16
LBB16_16:                               ##   in Loop: Header=BB16_5 Depth=1
	movq	-3576(%rbp), %rax       ## 8-byte Reload
	movq	%rax, -1808(%rbp)
	movq	-1808(%rbp), %rcx
	.loc	9 54 0                  ## /Applications/Xcode.app/Contents/Developer/Toolchains/XcodeDefault.xctoolchain/usr/bin/../include/c++/v1/__split_buffer:54:0
Ltmp527:
	addq	$24, %rcx
	movq	%rcx, -1800(%rbp)
	movq	-1800(%rbp), %rcx
	movq	%rcx, -1792(%rbp)
	movq	-1792(%rbp), %rcx
Ltmp528:
	.loc	9 569 42                ## /Applications/Xcode.app/Contents/Developer/Toolchains/XcodeDefault.xctoolchain/usr/bin/../include/c++/v1/__split_buffer:569:42
	movq	16(%rax), %rdx
	movq	%rdx, -1816(%rbp)
	.loc	4 1039 0                ## /Applications/Xcode.app/Contents/Developer/Toolchains/XcodeDefault.xctoolchain/usr/bin/../include/c++/v1/memory:1039:0
Ltmp529:
	movq	-1816(%rbp), %rdx
Ltmp530:
	.loc	9 569 0                 ## /Applications/Xcode.app/Contents/Developer/Toolchains/XcodeDefault.xctoolchain/usr/bin/../include/c++/v1/__split_buffer:569:0
	movq	-1976(%rbp), %rsi
	movq	%rcx, -1904(%rbp)
	movq	%rdx, -1912(%rbp)
	movq	%rsi, -1920(%rbp)
	.loc	4 1449 0                ## /Applications/Xcode.app/Contents/Developer/Toolchains/XcodeDefault.xctoolchain/usr/bin/../include/c++/v1/memory:1449:0
Ltmp531:
	movq	-1904(%rbp), %rcx
	movq	-1912(%rbp), %rdx
	.loc	4 1450 36               ## /Applications/Xcode.app/Contents/Developer/Toolchains/XcodeDefault.xctoolchain/usr/bin/../include/c++/v1/memory:1450:36
	movq	-1920(%rbp), %rsi
	movq	%rsi, -1896(%rbp)
	.loc	7 1549 0                ## /Applications/Xcode.app/Contents/Developer/Toolchains/XcodeDefault.xctoolchain/usr/bin/../include/c++/v1/type_traits:1549:0
Ltmp532:
	movq	-1896(%rbp), %rsi
	movq	%rcx, -1872(%rbp)
	movq	%rdx, -1880(%rbp)
	movq	%rsi, -1888(%rbp)
Ltmp533:
	.loc	4 1568 0                ## /Applications/Xcode.app/Contents/Developer/Toolchains/XcodeDefault.xctoolchain/usr/bin/../include/c++/v1/memory:1568:0
	movq	-1872(%rbp), %rcx
	movq	-1880(%rbp), %rdx
	.loc	4 1568 33               ## /Applications/Xcode.app/Contents/Developer/Toolchains/XcodeDefault.xctoolchain/usr/bin/../include/c++/v1/memory:1568:33
	movq	-1888(%rbp), %rsi
	movq	%rsi, -1856(%rbp)
	.loc	7 1549 0                ## /Applications/Xcode.app/Contents/Developer/Toolchains/XcodeDefault.xctoolchain/usr/bin/../include/c++/v1/type_traits:1549:0
Ltmp534:
	movq	-1856(%rbp), %rsi
	movq	%rcx, -1832(%rbp)
	movq	%rdx, -1840(%rbp)
	movq	%rsi, -1848(%rbp)
Ltmp535:
	.loc	4 1641 0                ## /Applications/Xcode.app/Contents/Developer/Toolchains/XcodeDefault.xctoolchain/usr/bin/../include/c++/v1/memory:1641:0
	movq	-1840(%rbp), %rcx
	cmpq	$0, %rcx
	movq	%rcx, -3632(%rbp)       ## 8-byte Spill
	je	LBB16_18
## BB#17:                               ##   in Loop: Header=BB16_5 Depth=1
	movq	-3632(%rbp), %rax       ## 8-byte Reload
	.loc	4 1641 35               ## /Applications/Xcode.app/Contents/Developer/Toolchains/XcodeDefault.xctoolchain/usr/bin/../include/c++/v1/memory:1641:35
	movq	-1848(%rbp), %rcx
	movq	%rcx, -1824(%rbp)
	.loc	7 1549 0                ## /Applications/Xcode.app/Contents/Developer/Toolchains/XcodeDefault.xctoolchain/usr/bin/../include/c++/v1/type_traits:1549:0
Ltmp536:
	movq	-1824(%rbp), %rcx
Ltmp537:
	.loc	4 1641 35               ## /Applications/Xcode.app/Contents/Developer/Toolchains/XcodeDefault.xctoolchain/usr/bin/../include/c++/v1/memory:1641:35
	movq	(%rcx), %rcx
	movq	-3632(%rbp), %rdx       ## 8-byte Reload
	movq	%rcx, (%rdx)
	movq	%rax, -3640(%rbp)       ## 8-byte Spill
Ltmp538:
LBB16_18:                               ## %_ZNSt3__114__split_bufferIPiNS_9allocatorIS1_EEE9push_backERKS1_.exit
                                        ##   in Loop: Header=BB16_5 Depth=1
	.loc	9 570 0                 ## /Applications/Xcode.app/Contents/Developer/Toolchains/XcodeDefault.xctoolchain/usr/bin/../include/c++/v1/__split_buffer:570:0
	movq	-3576(%rbp), %rax       ## 8-byte Reload
	movq	16(%rax), %rcx
	addq	$8, %rcx
	movq	%rcx, 16(%rax)
Ltmp539:
## BB#19:                               ##   in Loop: Header=BB16_5 Depth=1
	.loc	3 2459 0                ## /Applications/Xcode.app/Contents/Developer/Toolchains/XcodeDefault.xctoolchain/usr/bin/../include/c++/v1/deque:2459:0
	movq	-3416(%rbp), %rax
	addq	$-1, %rax
	movq	%rax, -3416(%rbp)
	jmp	LBB16_5
Ltmp540:
LBB16_20:
	.loc	3 2465 0                ## /Applications/Xcode.app/Contents/Developer/Toolchains/XcodeDefault.xctoolchain/usr/bin/../include/c++/v1/deque:2465:0
	jmp	LBB16_97
Ltmp541:
LBB16_21:
	.loc	3 2467 0                ## /Applications/Xcode.app/Contents/Developer/Toolchains/XcodeDefault.xctoolchain/usr/bin/../include/c++/v1/deque:2467:0
	movq	-3408(%rbp), %rax
	movq	-3560(%rbp), %rcx       ## 8-byte Reload
	movq	%rcx, -1280(%rbp)
	movq	-1280(%rbp), %rcx
	movq	%rcx, -1272(%rbp)
	movq	-1272(%rbp), %rdx
	.loc	9 57 0                  ## /Applications/Xcode.app/Contents/Developer/Toolchains/XcodeDefault.xctoolchain/usr/bin/../include/c++/v1/__split_buffer:57:0
Ltmp542:
	addq	$24, %rdx
	movq	%rdx, -1264(%rbp)
	movq	-1264(%rbp), %rdx
	movq	%rdx, -1256(%rbp)
	movq	-1256(%rbp), %rdx
Ltmp543:
	.loc	9 86 0                  ## /Applications/Xcode.app/Contents/Developer/Toolchains/XcodeDefault.xctoolchain/usr/bin/../include/c++/v1/__split_buffer:86:0
	movq	(%rdx), %rdx
	movq	(%rcx), %rcx
	subq	%rcx, %rdx
	sarq	$3, %rdx
Ltmp544:
	.loc	3 2467 0                ## /Applications/Xcode.app/Contents/Developer/Toolchains/XcodeDefault.xctoolchain/usr/bin/../include/c++/v1/deque:2467:0
	movq	-3560(%rbp), %rcx       ## 8-byte Reload
	movq	%rcx, -1248(%rbp)
	movq	-1248(%rbp), %rcx
	.loc	9 84 0                  ## /Applications/Xcode.app/Contents/Developer/Toolchains/XcodeDefault.xctoolchain/usr/bin/../include/c++/v1/__split_buffer:84:0
Ltmp545:
	movq	16(%rcx), %rsi
	movq	8(%rcx), %rcx
	subq	%rcx, %rsi
	sarq	$3, %rsi
Ltmp546:
	.loc	3 2467 0                ## /Applications/Xcode.app/Contents/Developer/Toolchains/XcodeDefault.xctoolchain/usr/bin/../include/c++/v1/deque:2467:0
	subq	%rsi, %rdx
	cmpq	%rdx, %rax
	ja	LBB16_49
## BB#22:
	.loc	3 2471 0                ## /Applications/Xcode.app/Contents/Developer/Toolchains/XcodeDefault.xctoolchain/usr/bin/../include/c++/v1/deque:2471:0
Ltmp547:
	jmp	LBB16_23
LBB16_23:                               ## =>This Inner Loop Header: Depth=1
	cmpq	$0, -3408(%rbp)
	jbe	LBB16_28
## BB#24:                               ##   in Loop: Header=BB16_23 Depth=1
	.loc	3 2473 0                ## /Applications/Xcode.app/Contents/Developer/Toolchains/XcodeDefault.xctoolchain/usr/bin/../include/c++/v1/deque:2473:0
Ltmp548:
	movq	-3560(%rbp), %rax       ## 8-byte Reload
	movq	%rax, -1240(%rbp)
	movq	-1240(%rbp), %rax
	movq	%rax, -1232(%rbp)
	movq	-1232(%rbp), %rcx
	.loc	9 57 0                  ## /Applications/Xcode.app/Contents/Developer/Toolchains/XcodeDefault.xctoolchain/usr/bin/../include/c++/v1/__split_buffer:57:0
Ltmp549:
	addq	$24, %rcx
	movq	%rcx, -1224(%rbp)
	movq	-1224(%rbp), %rcx
	movq	%rcx, -1216(%rbp)
	movq	-1216(%rbp), %rcx
Ltmp550:
	.loc	9 88 0                  ## /Applications/Xcode.app/Contents/Developer/Toolchains/XcodeDefault.xctoolchain/usr/bin/../include/c++/v1/__split_buffer:88:0
	movq	(%rcx), %rcx
	movq	16(%rax), %rax
	subq	%rax, %rcx
	sarq	$3, %rcx
Ltmp551:
	.loc	3 2473 0                ## /Applications/Xcode.app/Contents/Developer/Toolchains/XcodeDefault.xctoolchain/usr/bin/../include/c++/v1/deque:2473:0
	cmpq	$0, %rcx
	jne	LBB16_26
## BB#25:
	.loc	3 2474 0                ## /Applications/Xcode.app/Contents/Developer/Toolchains/XcodeDefault.xctoolchain/usr/bin/../include/c++/v1/deque:2474:0
	jmp	LBB16_28
Ltmp552:
LBB16_26:                               ##   in Loop: Header=BB16_23 Depth=1
	.loc	3 2475 0                ## /Applications/Xcode.app/Contents/Developer/Toolchains/XcodeDefault.xctoolchain/usr/bin/../include/c++/v1/deque:2475:0
	movq	-3560(%rbp), %rax       ## 8-byte Reload
	movq	-3400(%rbp), %rcx
	movq	%rcx, -1200(%rbp)
	movq	$1024, -1208(%rbp)      ## imm = 0x400
	.loc	4 1435 0                ## /Applications/Xcode.app/Contents/Developer/Toolchains/XcodeDefault.xctoolchain/usr/bin/../include/c++/v1/memory:1435:0
Ltmp553:
	movq	-1200(%rbp), %rcx
	movq	-1208(%rbp), %rdx
	movq	%rcx, -1176(%rbp)
	movq	%rdx, -1184(%rbp)
	movq	$0, -1192(%rbp)
	.loc	4 1630 0                ## /Applications/Xcode.app/Contents/Developer/Toolchains/XcodeDefault.xctoolchain/usr/bin/../include/c++/v1/memory:1630:0
Ltmp554:
	movq	-1184(%rbp), %rcx
	shlq	$2, %rcx
	movq	%rcx, %rdi
	movq	%rax, -3648(%rbp)       ## 8-byte Spill
	callq	__Znwm
	leaq	-3432(%rbp), %rsi
Ltmp555:
	.loc	3 2475 0                ## /Applications/Xcode.app/Contents/Developer/Toolchains/XcodeDefault.xctoolchain/usr/bin/../include/c++/v1/deque:2475:0
	movq	%rax, -3432(%rbp)
	movq	-3648(%rbp), %rdi       ## 8-byte Reload
	callq	__ZNSt3__114__split_bufferIPiNS_9allocatorIS1_EEE9push_backEOS1_
Ltmp556:
## BB#27:                               ##   in Loop: Header=BB16_23 Depth=1
	.loc	3 2471 0                ## /Applications/Xcode.app/Contents/Developer/Toolchains/XcodeDefault.xctoolchain/usr/bin/../include/c++/v1/deque:2471:0
	movq	-3408(%rbp), %rax
	addq	$-1, %rax
	movq	%rax, -3408(%rbp)
	jmp	LBB16_23
Ltmp557:
LBB16_28:
	.loc	3 2477 0                ## /Applications/Xcode.app/Contents/Developer/Toolchains/XcodeDefault.xctoolchain/usr/bin/../include/c++/v1/deque:2477:0
	jmp	LBB16_29
LBB16_29:                               ## =>This Inner Loop Header: Depth=1
	cmpq	$0, -3408(%rbp)
	jbe	LBB16_32
## BB#30:                               ##   in Loop: Header=BB16_29 Depth=1
	.loc	3 2479 0                ## /Applications/Xcode.app/Contents/Developer/Toolchains/XcodeDefault.xctoolchain/usr/bin/../include/c++/v1/deque:2479:0
	movq	-3560(%rbp), %rax       ## 8-byte Reload
	movq	-3400(%rbp), %rcx
	movq	%rcx, -1160(%rbp)
	movq	$1024, -1168(%rbp)      ## imm = 0x400
	.loc	4 1435 0                ## /Applications/Xcode.app/Contents/Developer/Toolchains/XcodeDefault.xctoolchain/usr/bin/../include/c++/v1/memory:1435:0
Ltmp558:
	movq	-1160(%rbp), %rcx
	movq	-1168(%rbp), %rdx
	movq	%rcx, -1136(%rbp)
	movq	%rdx, -1144(%rbp)
	movq	$0, -1152(%rbp)
	.loc	4 1630 0                ## /Applications/Xcode.app/Contents/Developer/Toolchains/XcodeDefault.xctoolchain/usr/bin/../include/c++/v1/memory:1630:0
Ltmp559:
	movq	-1144(%rbp), %rcx
	shlq	$2, %rcx
	movq	%rcx, %rdi
	movq	%rax, -3656(%rbp)       ## 8-byte Spill
	callq	__Znwm
	leaq	-3440(%rbp), %rsi
Ltmp560:
	.loc	3 2479 0                ## /Applications/Xcode.app/Contents/Developer/Toolchains/XcodeDefault.xctoolchain/usr/bin/../include/c++/v1/deque:2479:0
	movq	%rax, -3440(%rbp)
	movq	-3656(%rbp), %rdi       ## 8-byte Reload
	callq	__ZNSt3__114__split_bufferIPiNS_9allocatorIS1_EEE10push_frontEOS1_
## BB#31:                               ##   in Loop: Header=BB16_29 Depth=1
	movabsq	$1024, %rax             ## imm = 0x400
	.loc	3 2477 0                ## /Applications/Xcode.app/Contents/Developer/Toolchains/XcodeDefault.xctoolchain/usr/bin/../include/c++/v1/deque:2477:0
	movq	-3408(%rbp), %rcx
	addq	$-1, %rcx
	movq	%rcx, -3408(%rbp)
	movq	-3416(%rbp), %rcx
	addq	$1, %rcx
	movq	%rcx, -3416(%rbp)
	.loc	3 2478 0                ## /Applications/Xcode.app/Contents/Developer/Toolchains/XcodeDefault.xctoolchain/usr/bin/../include/c++/v1/deque:2478:0
	movq	-3560(%rbp), %rcx       ## 8-byte Reload
	movq	%rcx, -1128(%rbp)
	movq	-1128(%rbp), %rcx
	.loc	9 84 0                  ## /Applications/Xcode.app/Contents/Developer/Toolchains/XcodeDefault.xctoolchain/usr/bin/../include/c++/v1/__split_buffer:84:0
Ltmp561:
	movq	16(%rcx), %rdx
	movq	8(%rcx), %rcx
	subq	%rcx, %rdx
	sarq	$3, %rdx
Ltmp562:
	.loc	3 2478 0                ## /Applications/Xcode.app/Contents/Developer/Toolchains/XcodeDefault.xctoolchain/usr/bin/../include/c++/v1/deque:2478:0
	cmpq	$1, %rdx
	sete	%sil
	andb	$1, %sil
	movzbl	%sil, %edi
	movl	%edi, %ecx
	subq	%rcx, %rax
	movq	-3560(%rbp), %rcx       ## 8-byte Reload
	movq	32(%rcx), %rdx
	addq	%rax, %rdx
	movq	%rdx, 32(%rcx)
	jmp	LBB16_29
Ltmp563:
LBB16_32:
	.loc	3 2481 0                ## /Applications/Xcode.app/Contents/Developer/Toolchains/XcodeDefault.xctoolchain/usr/bin/../include/c++/v1/deque:2481:0
	movq	-3416(%rbp), %rax
	shlq	$10, %rax
	movq	-3560(%rbp), %rcx       ## 8-byte Reload
	movq	32(%rcx), %rdx
	subq	%rax, %rdx
	movq	%rdx, 32(%rcx)
LBB16_33:                               ## =>This Inner Loop Header: Depth=1
	.loc	3 2482 0                ## /Applications/Xcode.app/Contents/Developer/Toolchains/XcodeDefault.xctoolchain/usr/bin/../include/c++/v1/deque:2482:0
Ltmp564:
	cmpq	$0, -3416(%rbp)
	jbe	LBB16_48
## BB#34:                               ##   in Loop: Header=BB16_33 Depth=1
	leaq	-3448(%rbp), %rax
Ltmp565:
	##DEBUG_VALUE: __pt <- RAX
	.loc	3 2484 0                ## /Applications/Xcode.app/Contents/Developer/Toolchains/XcodeDefault.xctoolchain/usr/bin/../include/c++/v1/deque:2484:0
	movq	-3560(%rbp), %rcx       ## 8-byte Reload
	movq	%rcx, -1120(%rbp)
	movq	-1120(%rbp), %rcx
	.loc	9 90 0                  ## /Applications/Xcode.app/Contents/Developer/Toolchains/XcodeDefault.xctoolchain/usr/bin/../include/c++/v1/__split_buffer:90:0
Ltmp566:
	movq	8(%rcx), %rcx
Ltmp567:
	.loc	3 2484 0                ## /Applications/Xcode.app/Contents/Developer/Toolchains/XcodeDefault.xctoolchain/usr/bin/../include/c++/v1/deque:2484:0
	movq	(%rcx), %rcx
	movq	%rcx, -3448(%rbp)
	.loc	3 2485 0                ## /Applications/Xcode.app/Contents/Developer/Toolchains/XcodeDefault.xctoolchain/usr/bin/../include/c++/v1/deque:2485:0
	movq	-3560(%rbp), %rcx       ## 8-byte Reload
	movq	%rcx, -1056(%rbp)
	movq	-1056(%rbp), %rcx
	.loc	9 108 0                 ## /Applications/Xcode.app/Contents/Developer/Toolchains/XcodeDefault.xctoolchain/usr/bin/../include/c++/v1/__split_buffer:108:0
Ltmp568:
	movq	8(%rcx), %rdx
	addq	$8, %rdx
	movq	%rcx, -1024(%rbp)
	movq	%rdx, -1032(%rbp)
	movq	-1024(%rbp), %rcx
	.loc	9 130 0                 ## /Applications/Xcode.app/Contents/Developer/Toolchains/XcodeDefault.xctoolchain/usr/bin/../include/c++/v1/__split_buffer:130:0
Ltmp569:
	movq	-1032(%rbp), %rdx
	movq	%rcx, -1008(%rbp)
	movq	%rdx, -1016(%rbp)
	movq	-1008(%rbp), %rcx
	.loc	9 301 0                 ## /Applications/Xcode.app/Contents/Developer/Toolchains/XcodeDefault.xctoolchain/usr/bin/../include/c++/v1/__split_buffer:301:0
Ltmp570:
	movq	-1016(%rbp), %rdx
	movq	%rdx, 8(%rcx)
Ltmp571:
	.loc	3 2486 0                ## /Applications/Xcode.app/Contents/Developer/Toolchains/XcodeDefault.xctoolchain/usr/bin/../include/c++/v1/deque:2486:0
	movq	-3560(%rbp), %rcx       ## 8-byte Reload
	movq	%rcx, -872(%rbp)
	movq	%rax, -880(%rbp)
	movq	-872(%rbp), %rax
Ltmp572:
	.loc	9 548 0                 ## /Applications/Xcode.app/Contents/Developer/Toolchains/XcodeDefault.xctoolchain/usr/bin/../include/c++/v1/__split_buffer:548:0
	movq	16(%rax), %rcx
	movq	%rax, -864(%rbp)
	movq	-864(%rbp), %rdx
	.loc	9 56 0                  ## /Applications/Xcode.app/Contents/Developer/Toolchains/XcodeDefault.xctoolchain/usr/bin/../include/c++/v1/__split_buffer:56:0
Ltmp573:
	addq	$24, %rdx
	movq	%rdx, -856(%rbp)
	movq	-856(%rbp), %rdx
	movq	%rdx, -848(%rbp)
	movq	-848(%rbp), %rdx
Ltmp574:
	.loc	9 548 0                 ## /Applications/Xcode.app/Contents/Developer/Toolchains/XcodeDefault.xctoolchain/usr/bin/../include/c++/v1/__split_buffer:548:0
	cmpq	(%rdx), %rcx
	movq	%rax, -3664(%rbp)       ## 8-byte Spill
	jne	LBB16_44
## BB#35:                               ##   in Loop: Header=BB16_33 Depth=1
	.loc	9 550 0                 ## /Applications/Xcode.app/Contents/Developer/Toolchains/XcodeDefault.xctoolchain/usr/bin/../include/c++/v1/__split_buffer:550:0
	movq	-3664(%rbp), %rax       ## 8-byte Reload
	movq	8(%rax), %rcx
	cmpq	(%rax), %rcx
	jbe	LBB16_37
## BB#36:                               ##   in Loop: Header=BB16_33 Depth=1
	movabsq	$0, %rax
	movabsq	$2, %rcx
	.loc	9 552 0                 ## /Applications/Xcode.app/Contents/Developer/Toolchains/XcodeDefault.xctoolchain/usr/bin/../include/c++/v1/__split_buffer:552:0
	movq	-3664(%rbp), %rdx       ## 8-byte Reload
	movq	8(%rdx), %rsi
	movq	(%rdx), %rdi
	subq	%rdi, %rsi
	sarq	$3, %rsi
	movq	%rsi, -888(%rbp)
	.loc	9 553 0                 ## /Applications/Xcode.app/Contents/Developer/Toolchains/XcodeDefault.xctoolchain/usr/bin/../include/c++/v1/__split_buffer:553:0
	movq	-888(%rbp), %rsi
	addq	$1, %rsi
	movq	%rax, -3672(%rbp)       ## 8-byte Spill
	movq	%rsi, %rax
	cqto
	idivq	%rcx
	movq	%rax, -888(%rbp)
	.loc	9 554 22                ## /Applications/Xcode.app/Contents/Developer/Toolchains/XcodeDefault.xctoolchain/usr/bin/../include/c++/v1/__split_buffer:554:22
	movq	-3664(%rbp), %rax       ## 8-byte Reload
	movq	8(%rax), %rcx
	movq	16(%rax), %rdx
	movq	8(%rax), %rsi
	movq	-3672(%rbp), %rdi       ## 8-byte Reload
	subq	-888(%rbp), %rdi
	shlq	$3, %rdi
	addq	%rdi, %rsi
	movq	%rcx, -672(%rbp)
	movq	%rdx, -680(%rbp)
	movq	%rsi, -688(%rbp)
	.loc	15 1873 26              ## /Applications/Xcode.app/Contents/Developer/Toolchains/XcodeDefault.xctoolchain/usr/bin/../include/c++/v1/algorithm:1873:26
Ltmp575:
	movq	-672(%rbp), %rcx
	movq	%rcx, -664(%rbp)
	.loc	15 1683 0               ## /Applications/Xcode.app/Contents/Developer/Toolchains/XcodeDefault.xctoolchain/usr/bin/../include/c++/v1/algorithm:1683:0
Ltmp576:
	movq	-664(%rbp), %rcx
Ltmp577:
	.loc	15 1873 50              ## /Applications/Xcode.app/Contents/Developer/Toolchains/XcodeDefault.xctoolchain/usr/bin/../include/c++/v1/algorithm:1873:50
	movq	-680(%rbp), %rdx
	movq	%rdx, -616(%rbp)
	.loc	15 1683 0               ## /Applications/Xcode.app/Contents/Developer/Toolchains/XcodeDefault.xctoolchain/usr/bin/../include/c++/v1/algorithm:1683:0
Ltmp578:
	movq	-616(%rbp), %rdx
Ltmp579:
	.loc	15 1873 73              ## /Applications/Xcode.app/Contents/Developer/Toolchains/XcodeDefault.xctoolchain/usr/bin/../include/c++/v1/algorithm:1873:73
	movq	-688(%rbp), %rsi
	movq	%rsi, -624(%rbp)
	.loc	15 1683 0               ## /Applications/Xcode.app/Contents/Developer/Toolchains/XcodeDefault.xctoolchain/usr/bin/../include/c++/v1/algorithm:1683:0
Ltmp580:
	movq	-624(%rbp), %rsi
	movq	%rcx, -632(%rbp)
	movq	%rdx, -640(%rbp)
	movq	%rsi, -648(%rbp)
Ltmp581:
	.loc	15 1863 0               ## /Applications/Xcode.app/Contents/Developer/Toolchains/XcodeDefault.xctoolchain/usr/bin/../include/c++/v1/algorithm:1863:0
	movq	-640(%rbp), %rcx
	movq	-632(%rbp), %rdx
	subq	%rdx, %rcx
	sarq	$3, %rcx
	movq	%rcx, -656(%rbp)
	.loc	15 1864 0               ## /Applications/Xcode.app/Contents/Developer/Toolchains/XcodeDefault.xctoolchain/usr/bin/../include/c++/v1/algorithm:1864:0
	movq	-648(%rbp), %rcx
	movq	-632(%rbp), %rdx
	movq	-656(%rbp), %rsi
	shlq	$3, %rsi
	movq	%rcx, %rdi
	movq	%rsi, -3680(%rbp)       ## 8-byte Spill
	movq	%rdx, %rsi
	movq	-3680(%rbp), %rdx       ## 8-byte Reload
	callq	_memmove
	.loc	15 1865 0               ## /Applications/Xcode.app/Contents/Developer/Toolchains/XcodeDefault.xctoolchain/usr/bin/../include/c++/v1/algorithm:1865:0
	movq	-648(%rbp), %rax
	movq	-656(%rbp), %rcx
	shlq	$3, %rcx
	addq	%rcx, %rax
Ltmp582:
	.loc	9 554 22                ## /Applications/Xcode.app/Contents/Developer/Toolchains/XcodeDefault.xctoolchain/usr/bin/../include/c++/v1/__split_buffer:554:22
	movq	-3664(%rbp), %rcx       ## 8-byte Reload
	movq	%rax, 16(%rcx)
	.loc	9 555 0                 ## /Applications/Xcode.app/Contents/Developer/Toolchains/XcodeDefault.xctoolchain/usr/bin/../include/c++/v1/__split_buffer:555:0
	movq	-888(%rbp), %rax
	movq	8(%rcx), %rdx
	movq	-3672(%rbp), %rsi       ## 8-byte Reload
	subq	%rax, %rsi
	shlq	$3, %rsi
	addq	%rsi, %rdx
	movq	%rdx, 8(%rcx)
	.loc	9 556 0                 ## /Applications/Xcode.app/Contents/Developer/Toolchains/XcodeDefault.xctoolchain/usr/bin/../include/c++/v1/__split_buffer:556:0
	jmp	LBB16_43
LBB16_37:                               ##   in Loop: Header=BB16_33 Depth=1
	leaq	-304(%rbp), %rax
	leaq	-912(%rbp), %rcx
	leaq	-904(%rbp), %rdx
	movq	-3664(%rbp), %rsi       ## 8-byte Reload
	movq	%rsi, -608(%rbp)
	movq	-608(%rbp), %rdi
	.loc	9 56 0                  ## /Applications/Xcode.app/Contents/Developer/Toolchains/XcodeDefault.xctoolchain/usr/bin/../include/c++/v1/__split_buffer:56:0
Ltmp583:
	addq	$24, %rdi
	movq	%rdi, -600(%rbp)
	movq	-600(%rbp), %rdi
	movq	%rdi, -592(%rbp)
	movq	-592(%rbp), %rdi
Ltmp584:
	.loc	9 559 0                 ## /Applications/Xcode.app/Contents/Developer/Toolchains/XcodeDefault.xctoolchain/usr/bin/../include/c++/v1/__split_buffer:559:0
	movq	(%rdi), %rdi
	movq	(%rsi), %r8
	subq	%r8, %rdi
	sarq	$3, %rdi
	shlq	$1, %rdi
	movq	%rdi, -904(%rbp)
	.loc	9 559 29                ## /Applications/Xcode.app/Contents/Developer/Toolchains/XcodeDefault.xctoolchain/usr/bin/../include/c++/v1/__split_buffer:559:29
	movq	$1, -912(%rbp)
	movq	%rdx, -328(%rbp)
	movq	%rcx, -336(%rbp)
	.loc	15 2610 12              ## /Applications/Xcode.app/Contents/Developer/Toolchains/XcodeDefault.xctoolchain/usr/bin/../include/c++/v1/algorithm:2610:12
Ltmp585:
	movq	-328(%rbp), %rcx
	movq	-336(%rbp), %rdx
	movq	%rcx, -312(%rbp)
	movq	%rdx, -320(%rbp)
Ltmp586:
	##DEBUG_VALUE: max<unsigned long, std::__1::__less<unsigned long, unsigned long> >:__comp <- RAX
	.loc	15 2602 0               ## /Applications/Xcode.app/Contents/Developer/Toolchains/XcodeDefault.xctoolchain/usr/bin/../include/c++/v1/algorithm:2602:0
	movq	-312(%rbp), %rcx
	movq	-320(%rbp), %rdx
	movq	%rax, -280(%rbp)
	movq	%rcx, -288(%rbp)
	movq	%rdx, -296(%rbp)
	.loc	15 685 0                ## /Applications/Xcode.app/Contents/Developer/Toolchains/XcodeDefault.xctoolchain/usr/bin/../include/c++/v1/algorithm:685:0
Ltmp587:
	movq	-288(%rbp), %rax
Ltmp588:
	movq	(%rax), %rax
	movq	-296(%rbp), %rcx
Ltmp589:
	.loc	15 2602 0               ## /Applications/Xcode.app/Contents/Developer/Toolchains/XcodeDefault.xctoolchain/usr/bin/../include/c++/v1/algorithm:2602:0
	cmpq	(%rcx), %rax
	jae	LBB16_39
## BB#38:                               ##   in Loop: Header=BB16_33 Depth=1
	movq	-320(%rbp), %rax
	movq	%rax, -3688(%rbp)       ## 8-byte Spill
	jmp	LBB16_40
LBB16_39:                               ##   in Loop: Header=BB16_33 Depth=1
	movq	-312(%rbp), %rax
	movq	%rax, -3688(%rbp)       ## 8-byte Spill
LBB16_40:                               ## %_ZNSt3__13maxImEERKT_S3_S3_.exit.i26
                                        ##   in Loop: Header=BB16_33 Depth=1
	movq	-3688(%rbp), %rax       ## 8-byte Reload
Ltmp590:
	.loc	9 559 29                ## /Applications/Xcode.app/Contents/Developer/Toolchains/XcodeDefault.xctoolchain/usr/bin/../include/c++/v1/__split_buffer:559:29
	movq	(%rax), %rax
	movq	%rax, -896(%rbp)
Ltmp591:
	##DEBUG_VALUE: __t <- [RBP+-952]
	.loc	9 560 0                 ## /Applications/Xcode.app/Contents/Developer/Toolchains/XcodeDefault.xctoolchain/usr/bin/../include/c++/v1/__split_buffer:560:0
	movq	%rax, %rcx
	shrq	$2, %rcx
	movq	-3664(%rbp), %rdx       ## 8-byte Reload
	movq	%rdx, -208(%rbp)
	.loc	9 54 0                  ## /Applications/Xcode.app/Contents/Developer/Toolchains/XcodeDefault.xctoolchain/usr/bin/../include/c++/v1/__split_buffer:54:0
Ltmp592:
	addq	$24, %rdx
	movq	%rdx, -200(%rbp)
	movq	%rdx, -192(%rbp)
	leaq	-952(%rbp), %rsi
Ltmp593:
	.loc	9 560 0                 ## /Applications/Xcode.app/Contents/Developer/Toolchains/XcodeDefault.xctoolchain/usr/bin/../include/c++/v1/__split_buffer:560:0
	movq	%rsi, %rdi
	movq	%rsi, -3696(%rbp)       ## 8-byte Spill
	movq	%rax, %rsi
	movq	%rdx, -3704(%rbp)       ## 8-byte Spill
	movq	%rcx, %rdx
	movq	-3704(%rbp), %rcx       ## 8-byte Reload
	callq	__ZNSt3__114__split_bufferIPiRNS_9allocatorIS1_EEEC1EmmS4_
	.loc	9 561 0                 ## /Applications/Xcode.app/Contents/Developer/Toolchains/XcodeDefault.xctoolchain/usr/bin/../include/c++/v1/__split_buffer:561:0
	movq	-3664(%rbp), %rax       ## 8-byte Reload
	movq	8(%rax), %rcx
	leaq	-960(%rbp), %rdx
	movq	%rdx, -232(%rbp)
	movq	%rcx, -240(%rbp)
	movq	-232(%rbp), %rdx
	movq	%rdx, -216(%rbp)
	movq	%rcx, -224(%rbp)
	movq	-216(%rbp), %rdx
	.loc	14 935 0                ## /Applications/Xcode.app/Contents/Developer/Toolchains/XcodeDefault.xctoolchain/usr/bin/../include/c++/v1/iterator:935:0
Ltmp594:
	movq	%rcx, (%rdx)
Ltmp595:
	.loc	9 561 0                 ## /Applications/Xcode.app/Contents/Developer/Toolchains/XcodeDefault.xctoolchain/usr/bin/../include/c++/v1/__split_buffer:561:0
	movq	16(%rax), %rcx
	leaq	-984(%rbp), %rdx
	movq	%rdx, -264(%rbp)
	movq	%rcx, -272(%rbp)
	movq	-264(%rbp), %rdx
	movq	%rdx, -248(%rbp)
	movq	%rcx, -256(%rbp)
	movq	-248(%rbp), %rdx
	.loc	14 935 0                ## /Applications/Xcode.app/Contents/Developer/Toolchains/XcodeDefault.xctoolchain/usr/bin/../include/c++/v1/iterator:935:0
Ltmp596:
	movq	%rcx, (%rdx)
Ltmp597:
	.loc	9 561 0                 ## /Applications/Xcode.app/Contents/Developer/Toolchains/XcodeDefault.xctoolchain/usr/bin/../include/c++/v1/__split_buffer:561:0
	movq	-960(%rbp), %rsi
	movq	-984(%rbp), %rdx
Ltmp428:
	movq	-3696(%rbp), %rdi       ## 8-byte Reload
	callq	__ZNSt3__114__split_bufferIPiRNS_9allocatorIS1_EEE18__construct_at_endINS_13move_iteratorIPS1_EEEENS_9enable_ifIXsr21__is_forward_iteratorIT_EE5valueEvE4typeESB_SB_
Ltmp429:
	jmp	LBB16_41
Ltmp598:
LBB16_41:                               ##   in Loop: Header=BB16_33 Depth=1
	leaq	-952(%rbp), %rax
	leaq	-584(%rbp), %rcx
	leaq	-488(%rbp), %rdx
	leaq	-440(%rbp), %rsi
	leaq	-392(%rbp), %rdi
	movq	-3664(%rbp), %r8        ## 8-byte Reload
	movq	%r8, -376(%rbp)
	movq	%rax, -384(%rbp)
Ltmp599:
	##DEBUG_VALUE: __t <- RDI
	.loc	7 3204 13               ## /Applications/Xcode.app/Contents/Developer/Toolchains/XcodeDefault.xctoolchain/usr/bin/../include/c++/v1/type_traits:3204:13
	movq	-376(%rbp), %r9
	movq	%r9, -368(%rbp)
	.loc	7 1541 0                ## /Applications/Xcode.app/Contents/Developer/Toolchains/XcodeDefault.xctoolchain/usr/bin/../include/c++/v1/type_traits:1541:0
Ltmp600:
	movq	-368(%rbp), %r9
Ltmp601:
	.loc	7 3204 13               ## /Applications/Xcode.app/Contents/Developer/Toolchains/XcodeDefault.xctoolchain/usr/bin/../include/c++/v1/type_traits:3204:13
	movq	(%r9), %r9
	movq	%r9, -392(%rbp)
	.loc	7 3205 11               ## /Applications/Xcode.app/Contents/Developer/Toolchains/XcodeDefault.xctoolchain/usr/bin/../include/c++/v1/type_traits:3205:11
	movq	-384(%rbp), %r9
	movq	%r9, -352(%rbp)
	.loc	7 1541 0                ## /Applications/Xcode.app/Contents/Developer/Toolchains/XcodeDefault.xctoolchain/usr/bin/../include/c++/v1/type_traits:1541:0
Ltmp602:
	movq	-352(%rbp), %r9
Ltmp603:
	.loc	7 3205 11               ## /Applications/Xcode.app/Contents/Developer/Toolchains/XcodeDefault.xctoolchain/usr/bin/../include/c++/v1/type_traits:3205:11
	movq	(%r9), %r9
	movq	-376(%rbp), %r10
	movq	%r9, (%r10)
	movq	%rdi, -360(%rbp)
	.loc	7 1541 0                ## /Applications/Xcode.app/Contents/Developer/Toolchains/XcodeDefault.xctoolchain/usr/bin/../include/c++/v1/type_traits:1541:0
Ltmp604:
	movq	-360(%rbp), %rdi
Ltmp605:
	.loc	7 3206 11               ## /Applications/Xcode.app/Contents/Developer/Toolchains/XcodeDefault.xctoolchain/usr/bin/../include/c++/v1/type_traits:3206:11
	movq	(%rdi), %rdi
	movq	-384(%rbp), %r9
	movq	%rdi, (%r9)
Ltmp606:
	.loc	9 564 0                 ## /Applications/Xcode.app/Contents/Developer/Toolchains/XcodeDefault.xctoolchain/usr/bin/../include/c++/v1/__split_buffer:564:0
	addq	$8, %r8
	movq	%rax, %rdi
	addq	$8, %rdi
	movq	%r8, -424(%rbp)
	movq	%rdi, -432(%rbp)
Ltmp607:
	##DEBUG_VALUE: __t <- RSI
	.loc	7 3204 13               ## /Applications/Xcode.app/Contents/Developer/Toolchains/XcodeDefault.xctoolchain/usr/bin/../include/c++/v1/type_traits:3204:13
	movq	-424(%rbp), %rdi
	movq	%rdi, -416(%rbp)
	.loc	7 1541 0                ## /Applications/Xcode.app/Contents/Developer/Toolchains/XcodeDefault.xctoolchain/usr/bin/../include/c++/v1/type_traits:1541:0
Ltmp608:
	movq	-416(%rbp), %rdi
Ltmp609:
	.loc	7 3204 13               ## /Applications/Xcode.app/Contents/Developer/Toolchains/XcodeDefault.xctoolchain/usr/bin/../include/c++/v1/type_traits:3204:13
	movq	(%rdi), %rdi
	movq	%rdi, -440(%rbp)
	.loc	7 3205 11               ## /Applications/Xcode.app/Contents/Developer/Toolchains/XcodeDefault.xctoolchain/usr/bin/../include/c++/v1/type_traits:3205:11
	movq	-432(%rbp), %rdi
	movq	%rdi, -400(%rbp)
	.loc	7 1541 0                ## /Applications/Xcode.app/Contents/Developer/Toolchains/XcodeDefault.xctoolchain/usr/bin/../include/c++/v1/type_traits:1541:0
Ltmp610:
	movq	-400(%rbp), %rdi
Ltmp611:
	.loc	7 3205 11               ## /Applications/Xcode.app/Contents/Developer/Toolchains/XcodeDefault.xctoolchain/usr/bin/../include/c++/v1/type_traits:3205:11
	movq	(%rdi), %rdi
	movq	-424(%rbp), %r8
	movq	%rdi, (%r8)
	movq	%rsi, -408(%rbp)
	.loc	7 1541 0                ## /Applications/Xcode.app/Contents/Developer/Toolchains/XcodeDefault.xctoolchain/usr/bin/../include/c++/v1/type_traits:1541:0
Ltmp612:
	movq	-408(%rbp), %rsi
Ltmp613:
	.loc	7 3206 11               ## /Applications/Xcode.app/Contents/Developer/Toolchains/XcodeDefault.xctoolchain/usr/bin/../include/c++/v1/type_traits:3206:11
	movq	(%rsi), %rsi
	movq	-432(%rbp), %rdi
	movq	%rsi, (%rdi)
Ltmp614:
	.loc	9 565 0                 ## /Applications/Xcode.app/Contents/Developer/Toolchains/XcodeDefault.xctoolchain/usr/bin/../include/c++/v1/__split_buffer:565:0
	movq	-3664(%rbp), %rsi       ## 8-byte Reload
	addq	$16, %rsi
	movq	%rax, %rdi
	addq	$16, %rdi
	movq	%rsi, -472(%rbp)
	movq	%rdi, -480(%rbp)
Ltmp615:
	##DEBUG_VALUE: __t <- RDX
	.loc	7 3204 13               ## /Applications/Xcode.app/Contents/Developer/Toolchains/XcodeDefault.xctoolchain/usr/bin/../include/c++/v1/type_traits:3204:13
	movq	-472(%rbp), %rsi
	movq	%rsi, -464(%rbp)
	.loc	7 1541 0                ## /Applications/Xcode.app/Contents/Developer/Toolchains/XcodeDefault.xctoolchain/usr/bin/../include/c++/v1/type_traits:1541:0
Ltmp616:
	movq	-464(%rbp), %rsi
Ltmp617:
	.loc	7 3204 13               ## /Applications/Xcode.app/Contents/Developer/Toolchains/XcodeDefault.xctoolchain/usr/bin/../include/c++/v1/type_traits:3204:13
	movq	(%rsi), %rsi
	movq	%rsi, -488(%rbp)
	.loc	7 3205 11               ## /Applications/Xcode.app/Contents/Developer/Toolchains/XcodeDefault.xctoolchain/usr/bin/../include/c++/v1/type_traits:3205:11
	movq	-480(%rbp), %rsi
	movq	%rsi, -448(%rbp)
	.loc	7 1541 0                ## /Applications/Xcode.app/Contents/Developer/Toolchains/XcodeDefault.xctoolchain/usr/bin/../include/c++/v1/type_traits:1541:0
Ltmp618:
	movq	-448(%rbp), %rsi
Ltmp619:
	.loc	7 3205 11               ## /Applications/Xcode.app/Contents/Developer/Toolchains/XcodeDefault.xctoolchain/usr/bin/../include/c++/v1/type_traits:3205:11
	movq	(%rsi), %rsi
	movq	-472(%rbp), %rdi
	movq	%rsi, (%rdi)
	movq	%rdx, -456(%rbp)
	.loc	7 1541 0                ## /Applications/Xcode.app/Contents/Developer/Toolchains/XcodeDefault.xctoolchain/usr/bin/../include/c++/v1/type_traits:1541:0
Ltmp620:
	movq	-456(%rbp), %rdx
Ltmp621:
	.loc	7 3206 11               ## /Applications/Xcode.app/Contents/Developer/Toolchains/XcodeDefault.xctoolchain/usr/bin/../include/c++/v1/type_traits:3206:11
	movq	(%rdx), %rdx
	movq	-480(%rbp), %rsi
	movq	%rdx, (%rsi)
	movq	-3664(%rbp), %rdx       ## 8-byte Reload
	movq	%rdx, -512(%rbp)
	movq	-512(%rbp), %rsi
Ltmp622:
	.loc	9 56 0                  ## /Applications/Xcode.app/Contents/Developer/Toolchains/XcodeDefault.xctoolchain/usr/bin/../include/c++/v1/__split_buffer:56:0
	addq	$24, %rsi
	movq	%rsi, -504(%rbp)
	movq	-504(%rbp), %rsi
	movq	%rsi, -496(%rbp)
	movq	-496(%rbp), %rsi
	movq	%rax, -536(%rbp)
	movq	-536(%rbp), %rdi
	.loc	9 56 0                  ## /Applications/Xcode.app/Contents/Developer/Toolchains/XcodeDefault.xctoolchain/usr/bin/../include/c++/v1/__split_buffer:56:0
	addq	$24, %rdi
	movq	%rdi, -528(%rbp)
	movq	-528(%rbp), %rdi
	movq	%rdi, -520(%rbp)
	movq	-520(%rbp), %rdi
	movq	%rsi, -568(%rbp)
	movq	%rdi, -576(%rbp)
Ltmp623:
	##DEBUG_VALUE: __t <- RCX
	.loc	7 3204 13               ## /Applications/Xcode.app/Contents/Developer/Toolchains/XcodeDefault.xctoolchain/usr/bin/../include/c++/v1/type_traits:3204:13
	movq	-568(%rbp), %rsi
	movq	%rsi, -560(%rbp)
	.loc	7 1541 0                ## /Applications/Xcode.app/Contents/Developer/Toolchains/XcodeDefault.xctoolchain/usr/bin/../include/c++/v1/type_traits:1541:0
Ltmp624:
	movq	-560(%rbp), %rsi
Ltmp625:
	.loc	7 3204 13               ## /Applications/Xcode.app/Contents/Developer/Toolchains/XcodeDefault.xctoolchain/usr/bin/../include/c++/v1/type_traits:3204:13
	movq	(%rsi), %rsi
	movq	%rsi, -584(%rbp)
	.loc	7 3205 11               ## /Applications/Xcode.app/Contents/Developer/Toolchains/XcodeDefault.xctoolchain/usr/bin/../include/c++/v1/type_traits:3205:11
	movq	-576(%rbp), %rsi
	movq	%rsi, -544(%rbp)
	.loc	7 1541 0                ## /Applications/Xcode.app/Contents/Developer/Toolchains/XcodeDefault.xctoolchain/usr/bin/../include/c++/v1/type_traits:1541:0
Ltmp626:
	movq	-544(%rbp), %rsi
Ltmp627:
	.loc	7 3205 11               ## /Applications/Xcode.app/Contents/Developer/Toolchains/XcodeDefault.xctoolchain/usr/bin/../include/c++/v1/type_traits:3205:11
	movq	(%rsi), %rsi
	movq	-568(%rbp), %rdi
	movq	%rsi, (%rdi)
	movq	%rcx, -552(%rbp)
	.loc	7 1541 0                ## /Applications/Xcode.app/Contents/Developer/Toolchains/XcodeDefault.xctoolchain/usr/bin/../include/c++/v1/type_traits:1541:0
Ltmp628:
	movq	-552(%rbp), %rcx
Ltmp629:
	.loc	7 3206 11               ## /Applications/Xcode.app/Contents/Developer/Toolchains/XcodeDefault.xctoolchain/usr/bin/../include/c++/v1/type_traits:3206:11
	movq	(%rcx), %rcx
	movq	-576(%rbp), %rsi
	movq	%rcx, (%rsi)
Ltmp630:
	.loc	9 567 0                 ## /Applications/Xcode.app/Contents/Developer/Toolchains/XcodeDefault.xctoolchain/usr/bin/../include/c++/v1/__split_buffer:567:0
	movq	%rax, %rdi
	callq	__ZNSt3__114__split_bufferIPiRNS_9allocatorIS1_EEED1Ev
	jmp	LBB16_43
LBB16_42:
Ltmp430:
	leaq	-952(%rbp), %rdi
	.loc	9 571 0                 ## /Applications/Xcode.app/Contents/Developer/Toolchains/XcodeDefault.xctoolchain/usr/bin/../include/c++/v1/__split_buffer:571:0
	movl	%edx, %ecx
	movq	%rax, -968(%rbp)
	movl	%ecx, -972(%rbp)
	.loc	9 571 0                 ## /Applications/Xcode.app/Contents/Developer/Toolchains/XcodeDefault.xctoolchain/usr/bin/../include/c++/v1/__split_buffer:571:0
	callq	__ZNSt3__114__split_bufferIPiRNS_9allocatorIS1_EEED1Ev
	movq	-968(%rbp), %rax
	movq	%rax, -3624(%rbp)       ## 8-byte Spill
	jmp	LBB16_101
LBB16_43:                               ##   in Loop: Header=BB16_33 Depth=1
	.loc	9 568 0                 ## /Applications/Xcode.app/Contents/Developer/Toolchains/XcodeDefault.xctoolchain/usr/bin/../include/c++/v1/__split_buffer:568:0
	jmp	LBB16_44
LBB16_44:                               ##   in Loop: Header=BB16_33 Depth=1
	movq	-3664(%rbp), %rax       ## 8-byte Reload
	movq	%rax, -712(%rbp)
	movq	-712(%rbp), %rcx
	.loc	9 54 0                  ## /Applications/Xcode.app/Contents/Developer/Toolchains/XcodeDefault.xctoolchain/usr/bin/../include/c++/v1/__split_buffer:54:0
Ltmp631:
	addq	$24, %rcx
	movq	%rcx, -704(%rbp)
	movq	-704(%rbp), %rcx
	movq	%rcx, -696(%rbp)
	movq	-696(%rbp), %rcx
Ltmp632:
	.loc	9 569 42                ## /Applications/Xcode.app/Contents/Developer/Toolchains/XcodeDefault.xctoolchain/usr/bin/../include/c++/v1/__split_buffer:569:42
	movq	16(%rax), %rdx
	movq	%rdx, -720(%rbp)
	.loc	4 1039 0                ## /Applications/Xcode.app/Contents/Developer/Toolchains/XcodeDefault.xctoolchain/usr/bin/../include/c++/v1/memory:1039:0
Ltmp633:
	movq	-720(%rbp), %rdx
Ltmp634:
	.loc	9 569 0                 ## /Applications/Xcode.app/Contents/Developer/Toolchains/XcodeDefault.xctoolchain/usr/bin/../include/c++/v1/__split_buffer:569:0
	movq	-880(%rbp), %rsi
	movq	%rcx, -808(%rbp)
	movq	%rdx, -816(%rbp)
	movq	%rsi, -824(%rbp)
	.loc	4 1449 0                ## /Applications/Xcode.app/Contents/Developer/Toolchains/XcodeDefault.xctoolchain/usr/bin/../include/c++/v1/memory:1449:0
Ltmp635:
	movq	-808(%rbp), %rcx
	movq	-816(%rbp), %rdx
	.loc	4 1450 36               ## /Applications/Xcode.app/Contents/Developer/Toolchains/XcodeDefault.xctoolchain/usr/bin/../include/c++/v1/memory:1450:36
	movq	-824(%rbp), %rsi
	movq	%rsi, -800(%rbp)
	.loc	7 1549 0                ## /Applications/Xcode.app/Contents/Developer/Toolchains/XcodeDefault.xctoolchain/usr/bin/../include/c++/v1/type_traits:1549:0
Ltmp636:
	movq	-800(%rbp), %rsi
	movq	%rcx, -776(%rbp)
	movq	%rdx, -784(%rbp)
	movq	%rsi, -792(%rbp)
Ltmp637:
	.loc	4 1568 0                ## /Applications/Xcode.app/Contents/Developer/Toolchains/XcodeDefault.xctoolchain/usr/bin/../include/c++/v1/memory:1568:0
	movq	-776(%rbp), %rcx
	movq	-784(%rbp), %rdx
	.loc	4 1568 33               ## /Applications/Xcode.app/Contents/Developer/Toolchains/XcodeDefault.xctoolchain/usr/bin/../include/c++/v1/memory:1568:33
	movq	-792(%rbp), %rsi
	movq	%rsi, -760(%rbp)
	.loc	7 1549 0                ## /Applications/Xcode.app/Contents/Developer/Toolchains/XcodeDefault.xctoolchain/usr/bin/../include/c++/v1/type_traits:1549:0
Ltmp638:
	movq	-760(%rbp), %rsi
	movq	%rcx, -736(%rbp)
	movq	%rdx, -744(%rbp)
	movq	%rsi, -752(%rbp)
Ltmp639:
	.loc	4 1641 0                ## /Applications/Xcode.app/Contents/Developer/Toolchains/XcodeDefault.xctoolchain/usr/bin/../include/c++/v1/memory:1641:0
	movq	-744(%rbp), %rcx
	cmpq	$0, %rcx
	movq	%rcx, -3712(%rbp)       ## 8-byte Spill
	je	LBB16_46
## BB#45:                               ##   in Loop: Header=BB16_33 Depth=1
	movq	-3712(%rbp), %rax       ## 8-byte Reload
	.loc	4 1641 35               ## /Applications/Xcode.app/Contents/Developer/Toolchains/XcodeDefault.xctoolchain/usr/bin/../include/c++/v1/memory:1641:35
	movq	-752(%rbp), %rcx
	movq	%rcx, -728(%rbp)
	.loc	7 1549 0                ## /Applications/Xcode.app/Contents/Developer/Toolchains/XcodeDefault.xctoolchain/usr/bin/../include/c++/v1/type_traits:1549:0
Ltmp640:
	movq	-728(%rbp), %rcx
Ltmp641:
	.loc	4 1641 35               ## /Applications/Xcode.app/Contents/Developer/Toolchains/XcodeDefault.xctoolchain/usr/bin/../include/c++/v1/memory:1641:35
	movq	(%rcx), %rcx
	movq	-3712(%rbp), %rdx       ## 8-byte Reload
	movq	%rcx, (%rdx)
	movq	%rax, -3720(%rbp)       ## 8-byte Spill
Ltmp642:
LBB16_46:                               ## %_ZNSt3__114__split_bufferIPiNS_9allocatorIS1_EEE9push_backERKS1_.exit27
                                        ##   in Loop: Header=BB16_33 Depth=1
	.loc	9 570 0                 ## /Applications/Xcode.app/Contents/Developer/Toolchains/XcodeDefault.xctoolchain/usr/bin/../include/c++/v1/__split_buffer:570:0
	movq	-3664(%rbp), %rax       ## 8-byte Reload
	movq	16(%rax), %rcx
	addq	$8, %rcx
	movq	%rcx, 16(%rax)
Ltmp643:
## BB#47:                               ##   in Loop: Header=BB16_33 Depth=1
	.loc	3 2482 0                ## /Applications/Xcode.app/Contents/Developer/Toolchains/XcodeDefault.xctoolchain/usr/bin/../include/c++/v1/deque:2482:0
	movq	-3416(%rbp), %rax
	addq	$-1, %rax
	movq	%rax, -3416(%rbp)
	jmp	LBB16_33
Ltmp644:
LBB16_48:
	.loc	3 2488 0                ## /Applications/Xcode.app/Contents/Developer/Toolchains/XcodeDefault.xctoolchain/usr/bin/../include/c++/v1/deque:2488:0
	jmp	LBB16_96
Ltmp645:
LBB16_49:
	leaq	-104(%rbp), %rax
	leaq	-3512(%rbp), %rcx
	leaq	-3504(%rbp), %rdx
	.loc	3 2492 0                ## /Applications/Xcode.app/Contents/Developer/Toolchains/XcodeDefault.xctoolchain/usr/bin/../include/c++/v1/deque:2492:0
Ltmp646:
	movq	-3416(%rbp), %rsi
	shlq	$10, %rsi
	movq	%rsi, -3456(%rbp)
	.loc	3 2494 0                ## /Applications/Xcode.app/Contents/Developer/Toolchains/XcodeDefault.xctoolchain/usr/bin/../include/c++/v1/deque:2494:0
	movq	-3560(%rbp), %rsi       ## 8-byte Reload
	movq	%rsi, -184(%rbp)
	movq	-184(%rbp), %rsi
	movq	%rsi, -176(%rbp)
	movq	-176(%rbp), %rdi
	.loc	9 57 0                  ## /Applications/Xcode.app/Contents/Developer/Toolchains/XcodeDefault.xctoolchain/usr/bin/../include/c++/v1/__split_buffer:57:0
Ltmp647:
	addq	$24, %rdi
	movq	%rdi, -168(%rbp)
	movq	-168(%rbp), %rdi
	movq	%rdi, -160(%rbp)
	movq	-160(%rbp), %rdi
Ltmp648:
	.loc	9 86 0                  ## /Applications/Xcode.app/Contents/Developer/Toolchains/XcodeDefault.xctoolchain/usr/bin/../include/c++/v1/__split_buffer:86:0
	movq	(%rdi), %rdi
	movq	(%rsi), %rsi
	subq	%rsi, %rdi
	sarq	$3, %rdi
Ltmp649:
	.loc	3 2494 0                ## /Applications/Xcode.app/Contents/Developer/Toolchains/XcodeDefault.xctoolchain/usr/bin/../include/c++/v1/deque:2494:0
	shlq	$1, %rdi
	movq	%rdi, -3504(%rbp)
	.loc	3 2494 19               ## /Applications/Xcode.app/Contents/Developer/Toolchains/XcodeDefault.xctoolchain/usr/bin/../include/c++/v1/deque:2494:19
	movq	-3408(%rbp), %rsi
	.loc	3 2495 0                ## /Applications/Xcode.app/Contents/Developer/Toolchains/XcodeDefault.xctoolchain/usr/bin/../include/c++/v1/deque:2495:0
	movq	-3560(%rbp), %rdi       ## 8-byte Reload
	movq	%rdi, -152(%rbp)
	movq	-152(%rbp), %rdi
	.loc	9 84 0                  ## /Applications/Xcode.app/Contents/Developer/Toolchains/XcodeDefault.xctoolchain/usr/bin/../include/c++/v1/__split_buffer:84:0
Ltmp650:
	movq	16(%rdi), %r8
	movq	8(%rdi), %rdi
	subq	%rdi, %r8
	sarq	$3, %r8
Ltmp651:
	.loc	3 2495 0                ## /Applications/Xcode.app/Contents/Developer/Toolchains/XcodeDefault.xctoolchain/usr/bin/../include/c++/v1/deque:2495:0
	addq	%r8, %rsi
	movq	%rsi, -3512(%rbp)
	movq	%rdx, -128(%rbp)
	movq	%rcx, -136(%rbp)
	.loc	15 2610 12              ## /Applications/Xcode.app/Contents/Developer/Toolchains/XcodeDefault.xctoolchain/usr/bin/../include/c++/v1/algorithm:2610:12
Ltmp652:
	movq	-128(%rbp), %rcx
	movq	-136(%rbp), %rdx
	movq	%rcx, -112(%rbp)
	movq	%rdx, -120(%rbp)
Ltmp653:
	##DEBUG_VALUE: max<unsigned long, std::__1::__less<unsigned long, unsigned long> >:__comp <- RAX
	.loc	15 2602 0               ## /Applications/Xcode.app/Contents/Developer/Toolchains/XcodeDefault.xctoolchain/usr/bin/../include/c++/v1/algorithm:2602:0
	movq	-112(%rbp), %rcx
	movq	-120(%rbp), %rdx
	movq	%rax, -80(%rbp)
	movq	%rcx, -88(%rbp)
	movq	%rdx, -96(%rbp)
	.loc	15 685 0                ## /Applications/Xcode.app/Contents/Developer/Toolchains/XcodeDefault.xctoolchain/usr/bin/../include/c++/v1/algorithm:685:0
Ltmp654:
	movq	-88(%rbp), %rax
Ltmp655:
	movq	(%rax), %rax
	movq	-96(%rbp), %rcx
Ltmp656:
	.loc	15 2602 0               ## /Applications/Xcode.app/Contents/Developer/Toolchains/XcodeDefault.xctoolchain/usr/bin/../include/c++/v1/algorithm:2602:0
	cmpq	(%rcx), %rax
	jae	LBB16_51
## BB#50:
	movq	-120(%rbp), %rax
	movq	%rax, -3728(%rbp)       ## 8-byte Spill
	jmp	LBB16_52
LBB16_51:
	movq	-112(%rbp), %rax
	movq	%rax, -3728(%rbp)       ## 8-byte Spill
LBB16_52:                               ## %_ZNSt3__13maxImEERKT_S3_S3_.exit
	movq	-3728(%rbp), %rax       ## 8-byte Reload
	leaq	-3496(%rbp), %rdi
Ltmp657:
	.loc	3 2494 19               ## /Applications/Xcode.app/Contents/Developer/Toolchains/XcodeDefault.xctoolchain/usr/bin/../include/c++/v1/deque:2494:19
	movq	(%rax), %rsi
	.loc	3 2496 0                ## /Applications/Xcode.app/Contents/Developer/Toolchains/XcodeDefault.xctoolchain/usr/bin/../include/c++/v1/deque:2496:0
	movq	-3560(%rbp), %rax       ## 8-byte Reload
	movq	%rax, -72(%rbp)
	movq	-72(%rbp), %rax
	.loc	9 84 0                  ## /Applications/Xcode.app/Contents/Developer/Toolchains/XcodeDefault.xctoolchain/usr/bin/../include/c++/v1/__split_buffer:84:0
Ltmp658:
	movq	16(%rax), %rcx
	movq	8(%rax), %rax
	subq	%rax, %rcx
	sarq	$3, %rcx
Ltmp659:
	.loc	3 2496 0                ## /Applications/Xcode.app/Contents/Developer/Toolchains/XcodeDefault.xctoolchain/usr/bin/../include/c++/v1/deque:2496:0
	subq	-3416(%rbp), %rcx
	.loc	3 2497 0                ## /Applications/Xcode.app/Contents/Developer/Toolchains/XcodeDefault.xctoolchain/usr/bin/../include/c++/v1/deque:2497:0
	movq	-3560(%rbp), %rax       ## 8-byte Reload
	movq	%rax, -24(%rbp)
	movq	-24(%rbp), %rax
	.loc	9 54 0                  ## /Applications/Xcode.app/Contents/Developer/Toolchains/XcodeDefault.xctoolchain/usr/bin/../include/c++/v1/__split_buffer:54:0
Ltmp660:
	addq	$24, %rax
	movq	%rax, -16(%rbp)
	movq	-16(%rbp), %rax
	movq	%rax, -8(%rbp)
	movq	-8(%rbp), %rax
Ltmp661:
	.loc	3 2494 0                ## /Applications/Xcode.app/Contents/Developer/Toolchains/XcodeDefault.xctoolchain/usr/bin/../include/c++/v1/deque:2494:0
	movq	%rcx, %rdx
	movq	%rax, %rcx
	callq	__ZNSt3__114__split_bufferIPiRNS_9allocatorIS1_EEEC1EmmS4_
LBB16_53:                               ## =>This Inner Loop Header: Depth=1
	.loc	3 2502 0                ## /Applications/Xcode.app/Contents/Developer/Toolchains/XcodeDefault.xctoolchain/usr/bin/../include/c++/v1/deque:2502:0
Ltmp662:
	cmpq	$0, -3408(%rbp)
	jbe	LBB16_64
## BB#54:                               ##   in Loop: Header=BB16_53 Depth=1
	.loc	3 2503 0                ## /Applications/Xcode.app/Contents/Developer/Toolchains/XcodeDefault.xctoolchain/usr/bin/../include/c++/v1/deque:2503:0
	movq	-3400(%rbp), %rax
	movq	%rax, -56(%rbp)
	movq	$1024, -64(%rbp)        ## imm = 0x400
	.loc	4 1435 0                ## /Applications/Xcode.app/Contents/Developer/Toolchains/XcodeDefault.xctoolchain/usr/bin/../include/c++/v1/memory:1435:0
Ltmp663:
	movq	-56(%rbp), %rax
	movq	%rax, -32(%rbp)
	movq	$1024, -40(%rbp)        ## imm = 0x400
	movq	$0, -48(%rbp)
	.loc	4 1630 0                ## /Applications/Xcode.app/Contents/Developer/Toolchains/XcodeDefault.xctoolchain/usr/bin/../include/c++/v1/memory:1630:0
Ltmp664:
	movq	-40(%rbp), %rax
	shlq	$2, %rax
Ltmp417:
	movq	%rax, %rdi
	callq	__Znwm
Ltmp418:
	movq	%rax, -3736(%rbp)       ## 8-byte Spill
	jmp	LBB16_55
LBB16_55:                               ## %_ZNSt3__116allocator_traitsINS_9allocatorIiEEE8allocateERS2_m.exit
                                        ##   in Loop: Header=BB16_53 Depth=1
	movq	-3736(%rbp), %rax       ## 8-byte Reload
	movq	%rax, -3744(%rbp)       ## 8-byte Spill
Ltmp665:
## BB#56:                               ##   in Loop: Header=BB16_53 Depth=1
	.loc	3 2503 0                ## /Applications/Xcode.app/Contents/Developer/Toolchains/XcodeDefault.xctoolchain/usr/bin/../include/c++/v1/deque:2503:0
	movq	-3744(%rbp), %rax       ## 8-byte Reload
	movq	%rax, -3520(%rbp)
Ltmp419:
	leaq	-3496(%rbp), %rdi
	leaq	-3520(%rbp), %rsi
	callq	__ZNSt3__114__split_bufferIPiRNS_9allocatorIS1_EEE9push_backEOS1_
Ltmp420:
	jmp	LBB16_57
LBB16_57:                               ##   in Loop: Header=BB16_53 Depth=1
	jmp	LBB16_58
LBB16_58:                               ##   in Loop: Header=BB16_53 Depth=1
	.loc	3 2502 0                ## /Applications/Xcode.app/Contents/Developer/Toolchains/XcodeDefault.xctoolchain/usr/bin/../include/c++/v1/deque:2502:0
	movq	-3408(%rbp), %rax
	addq	$-1, %rax
	movq	%rax, -3408(%rbp)
	jmp	LBB16_53
LBB16_59:
Ltmp421:
	.loc	3 2528 0                ## /Applications/Xcode.app/Contents/Developer/Toolchains/XcodeDefault.xctoolchain/usr/bin/../include/c++/v1/deque:2528:0
	movl	%edx, %ecx
	movq	%rax, -3528(%rbp)
	movl	%ecx, -3532(%rbp)
Ltmp666:
## BB#60:
	.loc	3 2505 0                ## /Applications/Xcode.app/Contents/Developer/Toolchains/XcodeDefault.xctoolchain/usr/bin/../include/c++/v1/deque:2505:0
	movq	-3528(%rbp), %rdi
	callq	___cxa_begin_catch
	leaq	-3496(%rbp), %rdi
	movq	%rdi, -992(%rbp)
	movq	-992(%rbp), %rdi
Ltmp667:
	.loc	9 76 0                  ## /Applications/Xcode.app/Contents/Developer/Toolchains/XcodeDefault.xctoolchain/usr/bin/../include/c++/v1/__split_buffer:76:0
	movq	8(%rdi), %rdi
Ltmp668:
	.loc	3 2508 0                ## /Applications/Xcode.app/Contents/Developer/Toolchains/XcodeDefault.xctoolchain/usr/bin/../include/c++/v1/deque:2508:0
	movq	%rdi, -3544(%rbp)
	movq	%rax, -3752(%rbp)       ## 8-byte Spill
LBB16_61:                               ## =>This Inner Loop Header: Depth=1
	leaq	-3496(%rbp), %rax
	movq	-3544(%rbp), %rcx
	movq	%rax, -1000(%rbp)
	movq	-1000(%rbp), %rax
	.loc	3 2509 0                ## /Applications/Xcode.app/Contents/Developer/Toolchains/XcodeDefault.xctoolchain/usr/bin/../include/c++/v1/deque:2509:0
	cmpq	16(%rax), %rcx
	je	LBB16_65
## BB#62:                               ##   in Loop: Header=BB16_61 Depth=1
	.loc	3 2510 0                ## /Applications/Xcode.app/Contents/Developer/Toolchains/XcodeDefault.xctoolchain/usr/bin/../include/c++/v1/deque:2510:0
	movq	-3400(%rbp), %rax
	movq	-3544(%rbp), %rcx
	movq	(%rcx), %rcx
	movq	%rax, -1088(%rbp)
	movq	%rcx, -1096(%rbp)
	movq	$1024, -1104(%rbp)      ## imm = 0x400
	.loc	4 1443 0                ## /Applications/Xcode.app/Contents/Developer/Toolchains/XcodeDefault.xctoolchain/usr/bin/../include/c++/v1/memory:1443:0
Ltmp669:
	movq	-1088(%rbp), %rax
	movq	-1096(%rbp), %rcx
	movq	-1104(%rbp), %rdx
	movq	%rax, -1064(%rbp)
	movq	%rcx, -1072(%rbp)
	movq	%rdx, -1080(%rbp)
	.loc	4 1632 0                ## /Applications/Xcode.app/Contents/Developer/Toolchains/XcodeDefault.xctoolchain/usr/bin/../include/c++/v1/memory:1632:0
Ltmp670:
	movq	-1072(%rbp), %rax
	movq	%rax, %rdi
	callq	__ZdlPv
Ltmp671:
## BB#63:                               ##   in Loop: Header=BB16_61 Depth=1
	.loc	3 2509 0                ## /Applications/Xcode.app/Contents/Developer/Toolchains/XcodeDefault.xctoolchain/usr/bin/../include/c++/v1/deque:2509:0
	movq	-3544(%rbp), %rax
	addq	$8, %rax
	movq	%rax, -3544(%rbp)
	jmp	LBB16_61
Ltmp672:
LBB16_64:
	.loc	3 2505 0                ## /Applications/Xcode.app/Contents/Developer/Toolchains/XcodeDefault.xctoolchain/usr/bin/../include/c++/v1/deque:2505:0
	jmp	LBB16_68
Ltmp673:
LBB16_65:
	.loc	3 2511 0                ## /Applications/Xcode.app/Contents/Developer/Toolchains/XcodeDefault.xctoolchain/usr/bin/../include/c++/v1/deque:2511:0
Ltmp422:
	callq	___cxa_rethrow
Ltmp423:
	jmp	LBB16_100
LBB16_66:
Ltmp424:
	.loc	3 2528 0                ## /Applications/Xcode.app/Contents/Developer/Toolchains/XcodeDefault.xctoolchain/usr/bin/../include/c++/v1/deque:2528:0
	movl	%edx, %ecx
	movq	%rax, -3528(%rbp)
	movl	%ecx, -3532(%rbp)
Ltmp674:
	.loc	3 2528 0                ## /Applications/Xcode.app/Contents/Developer/Toolchains/XcodeDefault.xctoolchain/usr/bin/../include/c++/v1/deque:2528:0
Ltmp425:
	callq	___cxa_end_catch
Ltmp426:
	jmp	LBB16_67
LBB16_67:
	jmp	LBB16_95
LBB16_68:
	.loc	3 2514 0                ## /Applications/Xcode.app/Contents/Developer/Toolchains/XcodeDefault.xctoolchain/usr/bin/../include/c++/v1/deque:2514:0
Ltmp675:
	jmp	LBB16_69
LBB16_69:                               ## =>This Inner Loop Header: Depth=1
	cmpq	$0, -3416(%rbp)
	jbe	LBB16_90
## BB#70:                               ##   in Loop: Header=BB16_69 Depth=1
	.loc	3 2516 0                ## /Applications/Xcode.app/Contents/Developer/Toolchains/XcodeDefault.xctoolchain/usr/bin/../include/c++/v1/deque:2516:0
Ltmp676:
	movq	-3560(%rbp), %rax       ## 8-byte Reload
	movq	%rax, -1112(%rbp)
	movq	-1112(%rbp), %rax
	.loc	9 90 0                  ## /Applications/Xcode.app/Contents/Developer/Toolchains/XcodeDefault.xctoolchain/usr/bin/../include/c++/v1/__split_buffer:90:0
Ltmp677:
	movq	8(%rax), %rax
	movq	%rax, -3760(%rbp)       ## 8-byte Spill
## BB#71:                               ##   in Loop: Header=BB16_69 Depth=1
	leaq	-3496(%rbp), %rax
	movq	%rax, -2832(%rbp)
	movq	-3760(%rbp), %rax       ## 8-byte Reload
	movq	%rax, -2840(%rbp)
	movq	-2832(%rbp), %rcx
	.loc	9 548 0                 ## /Applications/Xcode.app/Contents/Developer/Toolchains/XcodeDefault.xctoolchain/usr/bin/../include/c++/v1/__split_buffer:548:0
	movq	16(%rcx), %rdx
	movq	%rcx, -2824(%rbp)
	movq	-2824(%rbp), %rsi
	.loc	9 56 0                  ## /Applications/Xcode.app/Contents/Developer/Toolchains/XcodeDefault.xctoolchain/usr/bin/../include/c++/v1/__split_buffer:56:0
Ltmp678:
	addq	$24, %rsi
	movq	%rsi, -2816(%rbp)
	movq	-2816(%rbp), %rsi
	movq	%rsi, -2808(%rbp)
	movq	-2808(%rbp), %rsi
Ltmp679:
	.loc	9 548 0                 ## /Applications/Xcode.app/Contents/Developer/Toolchains/XcodeDefault.xctoolchain/usr/bin/../include/c++/v1/__split_buffer:548:0
	cmpq	(%rsi), %rdx
	movq	%rcx, -3768(%rbp)       ## 8-byte Spill
	jne	LBB16_82
## BB#72:                               ##   in Loop: Header=BB16_69 Depth=1
	.loc	9 550 0                 ## /Applications/Xcode.app/Contents/Developer/Toolchains/XcodeDefault.xctoolchain/usr/bin/../include/c++/v1/__split_buffer:550:0
	movq	-3768(%rbp), %rax       ## 8-byte Reload
	movq	8(%rax), %rcx
	cmpq	(%rax), %rcx
	jbe	LBB16_74
## BB#73:                               ##   in Loop: Header=BB16_69 Depth=1
	movabsq	$0, %rax
	movabsq	$2, %rcx
	.loc	9 552 0                 ## /Applications/Xcode.app/Contents/Developer/Toolchains/XcodeDefault.xctoolchain/usr/bin/../include/c++/v1/__split_buffer:552:0
	movq	-3768(%rbp), %rdx       ## 8-byte Reload
	movq	8(%rdx), %rsi
	movq	(%rdx), %rdi
	subq	%rdi, %rsi
	sarq	$3, %rsi
	movq	%rsi, -2848(%rbp)
	.loc	9 553 0                 ## /Applications/Xcode.app/Contents/Developer/Toolchains/XcodeDefault.xctoolchain/usr/bin/../include/c++/v1/__split_buffer:553:0
	movq	-2848(%rbp), %rsi
	addq	$1, %rsi
	movq	%rax, -3776(%rbp)       ## 8-byte Spill
	movq	%rsi, %rax
	cqto
	idivq	%rcx
	movq	%rax, -2848(%rbp)
	.loc	9 554 22                ## /Applications/Xcode.app/Contents/Developer/Toolchains/XcodeDefault.xctoolchain/usr/bin/../include/c++/v1/__split_buffer:554:22
	movq	-3768(%rbp), %rax       ## 8-byte Reload
	movq	8(%rax), %rcx
	movq	16(%rax), %rdx
	movq	8(%rax), %rsi
	movq	-3776(%rbp), %rdi       ## 8-byte Reload
	subq	-2848(%rbp), %rdi
	shlq	$3, %rdi
	addq	%rdi, %rsi
	movq	%rcx, -2632(%rbp)
	movq	%rdx, -2640(%rbp)
	movq	%rsi, -2648(%rbp)
	.loc	15 1873 26              ## /Applications/Xcode.app/Contents/Developer/Toolchains/XcodeDefault.xctoolchain/usr/bin/../include/c++/v1/algorithm:1873:26
Ltmp680:
	movq	-2632(%rbp), %rcx
	movq	%rcx, -2624(%rbp)
	.loc	15 1683 0               ## /Applications/Xcode.app/Contents/Developer/Toolchains/XcodeDefault.xctoolchain/usr/bin/../include/c++/v1/algorithm:1683:0
Ltmp681:
	movq	-2624(%rbp), %rcx
Ltmp682:
	.loc	15 1873 50              ## /Applications/Xcode.app/Contents/Developer/Toolchains/XcodeDefault.xctoolchain/usr/bin/../include/c++/v1/algorithm:1873:50
	movq	-2640(%rbp), %rdx
	movq	%rdx, -2576(%rbp)
	.loc	15 1683 0               ## /Applications/Xcode.app/Contents/Developer/Toolchains/XcodeDefault.xctoolchain/usr/bin/../include/c++/v1/algorithm:1683:0
Ltmp683:
	movq	-2576(%rbp), %rdx
Ltmp684:
	.loc	15 1873 73              ## /Applications/Xcode.app/Contents/Developer/Toolchains/XcodeDefault.xctoolchain/usr/bin/../include/c++/v1/algorithm:1873:73
	movq	-2648(%rbp), %rsi
	movq	%rsi, -2584(%rbp)
	.loc	15 1683 0               ## /Applications/Xcode.app/Contents/Developer/Toolchains/XcodeDefault.xctoolchain/usr/bin/../include/c++/v1/algorithm:1683:0
Ltmp685:
	movq	-2584(%rbp), %rsi
	movq	%rcx, -2592(%rbp)
	movq	%rdx, -2600(%rbp)
	movq	%rsi, -2608(%rbp)
Ltmp686:
	.loc	15 1863 0               ## /Applications/Xcode.app/Contents/Developer/Toolchains/XcodeDefault.xctoolchain/usr/bin/../include/c++/v1/algorithm:1863:0
	movq	-2600(%rbp), %rcx
	movq	-2592(%rbp), %rdx
	subq	%rdx, %rcx
	sarq	$3, %rcx
	movq	%rcx, -2616(%rbp)
	.loc	15 1864 0               ## /Applications/Xcode.app/Contents/Developer/Toolchains/XcodeDefault.xctoolchain/usr/bin/../include/c++/v1/algorithm:1864:0
	movq	-2608(%rbp), %rcx
	movq	-2592(%rbp), %rdx
	movq	-2616(%rbp), %rsi
	shlq	$3, %rsi
	movq	%rcx, %rdi
	movq	%rsi, -3784(%rbp)       ## 8-byte Spill
	movq	%rdx, %rsi
	movq	-3784(%rbp), %rdx       ## 8-byte Reload
	callq	_memmove
	.loc	15 1865 0               ## /Applications/Xcode.app/Contents/Developer/Toolchains/XcodeDefault.xctoolchain/usr/bin/../include/c++/v1/algorithm:1865:0
	movq	-2608(%rbp), %rax
	movq	-2616(%rbp), %rcx
	shlq	$3, %rcx
	addq	%rcx, %rax
Ltmp687:
	.loc	9 554 22                ## /Applications/Xcode.app/Contents/Developer/Toolchains/XcodeDefault.xctoolchain/usr/bin/../include/c++/v1/__split_buffer:554:22
	movq	-3768(%rbp), %rcx       ## 8-byte Reload
	movq	%rax, 16(%rcx)
	.loc	9 555 0                 ## /Applications/Xcode.app/Contents/Developer/Toolchains/XcodeDefault.xctoolchain/usr/bin/../include/c++/v1/__split_buffer:555:0
	movq	-2848(%rbp), %rax
	movq	8(%rcx), %rdx
	movq	-3776(%rbp), %rsi       ## 8-byte Reload
	subq	%rax, %rsi
	shlq	$3, %rsi
	addq	%rsi, %rdx
	movq	%rdx, 8(%rcx)
	.loc	9 556 0                 ## /Applications/Xcode.app/Contents/Developer/Toolchains/XcodeDefault.xctoolchain/usr/bin/../include/c++/v1/__split_buffer:556:0
	jmp	LBB16_81
LBB16_74:                               ##   in Loop: Header=BB16_69 Depth=1
	leaq	-2264(%rbp), %rax
	leaq	-2872(%rbp), %rcx
	leaq	-2864(%rbp), %rdx
	movq	-3768(%rbp), %rsi       ## 8-byte Reload
	movq	%rsi, -2568(%rbp)
	movq	-2568(%rbp), %rdi
	.loc	9 56 0                  ## /Applications/Xcode.app/Contents/Developer/Toolchains/XcodeDefault.xctoolchain/usr/bin/../include/c++/v1/__split_buffer:56:0
Ltmp688:
	addq	$24, %rdi
	movq	%rdi, -2560(%rbp)
	movq	-2560(%rbp), %rdi
	movq	%rdi, -2552(%rbp)
	movq	-2552(%rbp), %rdi
Ltmp689:
	.loc	9 559 0                 ## /Applications/Xcode.app/Contents/Developer/Toolchains/XcodeDefault.xctoolchain/usr/bin/../include/c++/v1/__split_buffer:559:0
	movq	(%rdi), %rdi
	movq	(%rsi), %r8
	subq	%r8, %rdi
	sarq	$3, %rdi
	shlq	$1, %rdi
	movq	%rdi, -2864(%rbp)
	.loc	9 559 29                ## /Applications/Xcode.app/Contents/Developer/Toolchains/XcodeDefault.xctoolchain/usr/bin/../include/c++/v1/__split_buffer:559:29
	movq	$1, -2872(%rbp)
	movq	%rdx, -2288(%rbp)
	movq	%rcx, -2296(%rbp)
	.loc	15 2610 12              ## /Applications/Xcode.app/Contents/Developer/Toolchains/XcodeDefault.xctoolchain/usr/bin/../include/c++/v1/algorithm:2610:12
Ltmp690:
	movq	-2288(%rbp), %rcx
	movq	-2296(%rbp), %rdx
	movq	%rcx, -2272(%rbp)
	movq	%rdx, -2280(%rbp)
Ltmp691:
	##DEBUG_VALUE: max<unsigned long, std::__1::__less<unsigned long, unsigned long> >:__comp <- RAX
	.loc	15 2602 0               ## /Applications/Xcode.app/Contents/Developer/Toolchains/XcodeDefault.xctoolchain/usr/bin/../include/c++/v1/algorithm:2602:0
	movq	-2272(%rbp), %rcx
	movq	-2280(%rbp), %rdx
	movq	%rax, -2240(%rbp)
	movq	%rcx, -2248(%rbp)
	movq	%rdx, -2256(%rbp)
	.loc	15 685 0                ## /Applications/Xcode.app/Contents/Developer/Toolchains/XcodeDefault.xctoolchain/usr/bin/../include/c++/v1/algorithm:685:0
Ltmp692:
	movq	-2248(%rbp), %rax
Ltmp693:
	movq	(%rax), %rax
	movq	-2256(%rbp), %rcx
Ltmp694:
	.loc	15 2602 0               ## /Applications/Xcode.app/Contents/Developer/Toolchains/XcodeDefault.xctoolchain/usr/bin/../include/c++/v1/algorithm:2602:0
	cmpq	(%rcx), %rax
	jae	LBB16_76
## BB#75:                               ##   in Loop: Header=BB16_69 Depth=1
	movq	-2280(%rbp), %rax
	movq	%rax, -3792(%rbp)       ## 8-byte Spill
	jmp	LBB16_77
LBB16_76:                               ##   in Loop: Header=BB16_69 Depth=1
	movq	-2272(%rbp), %rax
	movq	%rax, -3792(%rbp)       ## 8-byte Spill
LBB16_77:                               ## %_ZNSt3__13maxImEERKT_S3_S3_.exit.i
                                        ##   in Loop: Header=BB16_69 Depth=1
	movq	-3792(%rbp), %rax       ## 8-byte Reload
Ltmp695:
	.loc	9 559 29                ## /Applications/Xcode.app/Contents/Developer/Toolchains/XcodeDefault.xctoolchain/usr/bin/../include/c++/v1/__split_buffer:559:29
	movq	(%rax), %rax
	movq	%rax, -2856(%rbp)
Ltmp696:
	##DEBUG_VALUE: __t <- [RBP+-2912]
	.loc	9 560 0                 ## /Applications/Xcode.app/Contents/Developer/Toolchains/XcodeDefault.xctoolchain/usr/bin/../include/c++/v1/__split_buffer:560:0
	movq	%rax, %rcx
	shrq	$2, %rcx
	movq	-3768(%rbp), %rdx       ## 8-byte Reload
	movq	%rdx, -2168(%rbp)
	.loc	9 54 0                  ## /Applications/Xcode.app/Contents/Developer/Toolchains/XcodeDefault.xctoolchain/usr/bin/../include/c++/v1/__split_buffer:54:0
Ltmp697:
	addq	$24, %rdx
	movq	%rdx, -2160(%rbp)
	movq	%rdx, -2152(%rbp)
	.loc	4 2013 0                ## /Applications/Xcode.app/Contents/Developer/Toolchains/XcodeDefault.xctoolchain/usr/bin/../include/c++/v1/memory:2013:0
Ltmp698:
	movq	-3768(%rbp), %rdx       ## 8-byte Reload
	movq	32(%rdx), %rsi
Ltmp411:
	leaq	-2912(%rbp), %rdi
	movq	%rsi, -3800(%rbp)       ## 8-byte Spill
	movq	%rax, %rsi
	movq	%rcx, %rdx
	movq	-3800(%rbp), %rcx       ## 8-byte Reload
	callq	__ZNSt3__114__split_bufferIPiRNS_9allocatorIS1_EEEC1EmmS4_
Ltmp412:
	jmp	LBB16_78
Ltmp699:
LBB16_78:                               ## %.noexc
                                        ##   in Loop: Header=BB16_69 Depth=1
	.loc	9 561 0                 ## /Applications/Xcode.app/Contents/Developer/Toolchains/XcodeDefault.xctoolchain/usr/bin/../include/c++/v1/__split_buffer:561:0
	movq	-3768(%rbp), %rax       ## 8-byte Reload
	movq	8(%rax), %rcx
	leaq	-2920(%rbp), %rdx
	movq	%rdx, -2192(%rbp)
	movq	%rcx, -2200(%rbp)
	movq	-2192(%rbp), %rdx
	movq	%rdx, -2176(%rbp)
	movq	%rcx, -2184(%rbp)
	movq	-2176(%rbp), %rdx
	.loc	14 935 0                ## /Applications/Xcode.app/Contents/Developer/Toolchains/XcodeDefault.xctoolchain/usr/bin/../include/c++/v1/iterator:935:0
Ltmp700:
	movq	%rcx, (%rdx)
Ltmp701:
	.loc	9 561 0                 ## /Applications/Xcode.app/Contents/Developer/Toolchains/XcodeDefault.xctoolchain/usr/bin/../include/c++/v1/__split_buffer:561:0
	movq	16(%rax), %rcx
	leaq	-2944(%rbp), %rdx
	movq	%rdx, -2224(%rbp)
	movq	%rcx, -2232(%rbp)
	movq	-2224(%rbp), %rdx
	movq	%rdx, -2208(%rbp)
	movq	%rcx, -2216(%rbp)
	movq	-2208(%rbp), %rdx
	.loc	14 935 0                ## /Applications/Xcode.app/Contents/Developer/Toolchains/XcodeDefault.xctoolchain/usr/bin/../include/c++/v1/iterator:935:0
Ltmp702:
	movq	%rcx, (%rdx)
Ltmp703:
	.loc	9 561 0                 ## /Applications/Xcode.app/Contents/Developer/Toolchains/XcodeDefault.xctoolchain/usr/bin/../include/c++/v1/__split_buffer:561:0
	movq	-2920(%rbp), %rsi
	movq	-2944(%rbp), %rdx
Ltmp414:
	leaq	-2912(%rbp), %rdi
	callq	__ZNSt3__114__split_bufferIPiRNS_9allocatorIS1_EEE18__construct_at_endINS_13move_iteratorIPS1_EEEENS_9enable_ifIXsr21__is_forward_iteratorIT_EE5valueEvE4typeESB_SB_
Ltmp415:
	jmp	LBB16_79
LBB16_79:                               ##   in Loop: Header=BB16_69 Depth=1
	leaq	-2912(%rbp), %rax
	leaq	-2544(%rbp), %rcx
	leaq	-2448(%rbp), %rdx
	leaq	-2400(%rbp), %rsi
	leaq	-2352(%rbp), %rdi
	movq	-3768(%rbp), %r8        ## 8-byte Reload
	movq	%r8, -2336(%rbp)
	movq	%rax, -2344(%rbp)
Ltmp704:
	##DEBUG_VALUE: __t <- RDI
	.loc	7 3204 13               ## /Applications/Xcode.app/Contents/Developer/Toolchains/XcodeDefault.xctoolchain/usr/bin/../include/c++/v1/type_traits:3204:13
	movq	-2336(%rbp), %r9
	movq	%r9, -2328(%rbp)
	.loc	7 1541 0                ## /Applications/Xcode.app/Contents/Developer/Toolchains/XcodeDefault.xctoolchain/usr/bin/../include/c++/v1/type_traits:1541:0
Ltmp705:
	movq	-2328(%rbp), %r9
Ltmp706:
	.loc	7 3204 13               ## /Applications/Xcode.app/Contents/Developer/Toolchains/XcodeDefault.xctoolchain/usr/bin/../include/c++/v1/type_traits:3204:13
	movq	(%r9), %r9
	movq	%r9, -2352(%rbp)
	.loc	7 3205 11               ## /Applications/Xcode.app/Contents/Developer/Toolchains/XcodeDefault.xctoolchain/usr/bin/../include/c++/v1/type_traits:3205:11
	movq	-2344(%rbp), %r9
	movq	%r9, -2312(%rbp)
	.loc	7 1541 0                ## /Applications/Xcode.app/Contents/Developer/Toolchains/XcodeDefault.xctoolchain/usr/bin/../include/c++/v1/type_traits:1541:0
Ltmp707:
	movq	-2312(%rbp), %r9
Ltmp708:
	.loc	7 3205 11               ## /Applications/Xcode.app/Contents/Developer/Toolchains/XcodeDefault.xctoolchain/usr/bin/../include/c++/v1/type_traits:3205:11
	movq	(%r9), %r9
	movq	-2336(%rbp), %r10
	movq	%r9, (%r10)
	movq	%rdi, -2320(%rbp)
	.loc	7 1541 0                ## /Applications/Xcode.app/Contents/Developer/Toolchains/XcodeDefault.xctoolchain/usr/bin/../include/c++/v1/type_traits:1541:0
Ltmp709:
	movq	-2320(%rbp), %rdi
Ltmp710:
	.loc	7 3206 11               ## /Applications/Xcode.app/Contents/Developer/Toolchains/XcodeDefault.xctoolchain/usr/bin/../include/c++/v1/type_traits:3206:11
	movq	(%rdi), %rdi
	movq	-2344(%rbp), %r9
	movq	%rdi, (%r9)
Ltmp711:
	.loc	9 564 0                 ## /Applications/Xcode.app/Contents/Developer/Toolchains/XcodeDefault.xctoolchain/usr/bin/../include/c++/v1/__split_buffer:564:0
	addq	$8, %r8
	movq	%rax, %rdi
	addq	$8, %rdi
	movq	%r8, -2384(%rbp)
	movq	%rdi, -2392(%rbp)
Ltmp712:
	##DEBUG_VALUE: __t <- RSI
	.loc	7 3204 13               ## /Applications/Xcode.app/Contents/Developer/Toolchains/XcodeDefault.xctoolchain/usr/bin/../include/c++/v1/type_traits:3204:13
	movq	-2384(%rbp), %rdi
	movq	%rdi, -2376(%rbp)
	.loc	7 1541 0                ## /Applications/Xcode.app/Contents/Developer/Toolchains/XcodeDefault.xctoolchain/usr/bin/../include/c++/v1/type_traits:1541:0
Ltmp713:
	movq	-2376(%rbp), %rdi
Ltmp714:
	.loc	7 3204 13               ## /Applications/Xcode.app/Contents/Developer/Toolchains/XcodeDefault.xctoolchain/usr/bin/../include/c++/v1/type_traits:3204:13
	movq	(%rdi), %rdi
	movq	%rdi, -2400(%rbp)
	.loc	7 3205 11               ## /Applications/Xcode.app/Contents/Developer/Toolchains/XcodeDefault.xctoolchain/usr/bin/../include/c++/v1/type_traits:3205:11
	movq	-2392(%rbp), %rdi
	movq	%rdi, -2360(%rbp)
	.loc	7 1541 0                ## /Applications/Xcode.app/Contents/Developer/Toolchains/XcodeDefault.xctoolchain/usr/bin/../include/c++/v1/type_traits:1541:0
Ltmp715:
	movq	-2360(%rbp), %rdi
Ltmp716:
	.loc	7 3205 11               ## /Applications/Xcode.app/Contents/Developer/Toolchains/XcodeDefault.xctoolchain/usr/bin/../include/c++/v1/type_traits:3205:11
	movq	(%rdi), %rdi
	movq	-2384(%rbp), %r8
	movq	%rdi, (%r8)
	movq	%rsi, -2368(%rbp)
	.loc	7 1541 0                ## /Applications/Xcode.app/Contents/Developer/Toolchains/XcodeDefault.xctoolchain/usr/bin/../include/c++/v1/type_traits:1541:0
Ltmp717:
	movq	-2368(%rbp), %rsi
Ltmp718:
	.loc	7 3206 11               ## /Applications/Xcode.app/Contents/Developer/Toolchains/XcodeDefault.xctoolchain/usr/bin/../include/c++/v1/type_traits:3206:11
	movq	(%rsi), %rsi
	movq	-2392(%rbp), %rdi
	movq	%rsi, (%rdi)
Ltmp719:
	.loc	9 565 0                 ## /Applications/Xcode.app/Contents/Developer/Toolchains/XcodeDefault.xctoolchain/usr/bin/../include/c++/v1/__split_buffer:565:0
	movq	-3768(%rbp), %rsi       ## 8-byte Reload
	addq	$16, %rsi
	movq	%rax, %rdi
	addq	$16, %rdi
	movq	%rsi, -2432(%rbp)
	movq	%rdi, -2440(%rbp)
Ltmp720:
	##DEBUG_VALUE: __t <- RDX
	.loc	7 3204 13               ## /Applications/Xcode.app/Contents/Developer/Toolchains/XcodeDefault.xctoolchain/usr/bin/../include/c++/v1/type_traits:3204:13
	movq	-2432(%rbp), %rsi
	movq	%rsi, -2424(%rbp)
	.loc	7 1541 0                ## /Applications/Xcode.app/Contents/Developer/Toolchains/XcodeDefault.xctoolchain/usr/bin/../include/c++/v1/type_traits:1541:0
Ltmp721:
	movq	-2424(%rbp), %rsi
Ltmp722:
	.loc	7 3204 13               ## /Applications/Xcode.app/Contents/Developer/Toolchains/XcodeDefault.xctoolchain/usr/bin/../include/c++/v1/type_traits:3204:13
	movq	(%rsi), %rsi
	movq	%rsi, -2448(%rbp)
	.loc	7 3205 11               ## /Applications/Xcode.app/Contents/Developer/Toolchains/XcodeDefault.xctoolchain/usr/bin/../include/c++/v1/type_traits:3205:11
	movq	-2440(%rbp), %rsi
	movq	%rsi, -2408(%rbp)
	.loc	7 1541 0                ## /Applications/Xcode.app/Contents/Developer/Toolchains/XcodeDefault.xctoolchain/usr/bin/../include/c++/v1/type_traits:1541:0
Ltmp723:
	movq	-2408(%rbp), %rsi
Ltmp724:
	.loc	7 3205 11               ## /Applications/Xcode.app/Contents/Developer/Toolchains/XcodeDefault.xctoolchain/usr/bin/../include/c++/v1/type_traits:3205:11
	movq	(%rsi), %rsi
	movq	-2432(%rbp), %rdi
	movq	%rsi, (%rdi)
	movq	%rdx, -2416(%rbp)
	.loc	7 1541 0                ## /Applications/Xcode.app/Contents/Developer/Toolchains/XcodeDefault.xctoolchain/usr/bin/../include/c++/v1/type_traits:1541:0
Ltmp725:
	movq	-2416(%rbp), %rdx
Ltmp726:
	.loc	7 3206 11               ## /Applications/Xcode.app/Contents/Developer/Toolchains/XcodeDefault.xctoolchain/usr/bin/../include/c++/v1/type_traits:3206:11
	movq	(%rdx), %rdx
	movq	-2440(%rbp), %rsi
	movq	%rdx, (%rsi)
	movq	-3768(%rbp), %rdx       ## 8-byte Reload
	movq	%rdx, -2472(%rbp)
	movq	-2472(%rbp), %rsi
Ltmp727:
	.loc	9 56 0                  ## /Applications/Xcode.app/Contents/Developer/Toolchains/XcodeDefault.xctoolchain/usr/bin/../include/c++/v1/__split_buffer:56:0
	addq	$24, %rsi
	movq	%rsi, -2464(%rbp)
	movq	-2464(%rbp), %rsi
	movq	%rsi, -2456(%rbp)
	movq	-2456(%rbp), %rsi
	movq	%rax, -2496(%rbp)
	movq	-2496(%rbp), %rdi
	addq	$24, %rdi
	movq	%rdi, -2488(%rbp)
	movq	-2488(%rbp), %rdi
	movq	%rdi, -2480(%rbp)
	movq	-2480(%rbp), %rdi
	movq	%rsi, -2528(%rbp)
	movq	%rdi, -2536(%rbp)
Ltmp728:
	##DEBUG_VALUE: __t <- RCX
	.loc	7 3204 13               ## /Applications/Xcode.app/Contents/Developer/Toolchains/XcodeDefault.xctoolchain/usr/bin/../include/c++/v1/type_traits:3204:13
	movq	-2528(%rbp), %rsi
	movq	%rsi, -2520(%rbp)
	.loc	7 1541 0                ## /Applications/Xcode.app/Contents/Developer/Toolchains/XcodeDefault.xctoolchain/usr/bin/../include/c++/v1/type_traits:1541:0
Ltmp729:
	movq	-2520(%rbp), %rsi
Ltmp730:
	.loc	7 3204 13               ## /Applications/Xcode.app/Contents/Developer/Toolchains/XcodeDefault.xctoolchain/usr/bin/../include/c++/v1/type_traits:3204:13
	movq	(%rsi), %rsi
	movq	%rsi, -2544(%rbp)
	.loc	7 3205 11               ## /Applications/Xcode.app/Contents/Developer/Toolchains/XcodeDefault.xctoolchain/usr/bin/../include/c++/v1/type_traits:3205:11
	movq	-2536(%rbp), %rsi
	movq	%rsi, -2504(%rbp)
	.loc	7 1541 0                ## /Applications/Xcode.app/Contents/Developer/Toolchains/XcodeDefault.xctoolchain/usr/bin/../include/c++/v1/type_traits:1541:0
Ltmp731:
	movq	-2504(%rbp), %rsi
Ltmp732:
	.loc	7 3205 11               ## /Applications/Xcode.app/Contents/Developer/Toolchains/XcodeDefault.xctoolchain/usr/bin/../include/c++/v1/type_traits:3205:11
	movq	(%rsi), %rsi
	movq	-2528(%rbp), %rdi
	movq	%rsi, (%rdi)
	movq	%rcx, -2512(%rbp)
	.loc	7 1541 0                ## /Applications/Xcode.app/Contents/Developer/Toolchains/XcodeDefault.xctoolchain/usr/bin/../include/c++/v1/type_traits:1541:0
Ltmp733:
	movq	-2512(%rbp), %rcx
Ltmp734:
	.loc	7 3206 11               ## /Applications/Xcode.app/Contents/Developer/Toolchains/XcodeDefault.xctoolchain/usr/bin/../include/c++/v1/type_traits:3206:11
	movq	(%rcx), %rcx
	movq	-2536(%rbp), %rsi
	movq	%rcx, (%rsi)
Ltmp735:
	.loc	9 567 0                 ## /Applications/Xcode.app/Contents/Developer/Toolchains/XcodeDefault.xctoolchain/usr/bin/../include/c++/v1/__split_buffer:567:0
	movq	%rax, %rdi
	callq	__ZNSt3__114__split_bufferIPiRNS_9allocatorIS1_EEED1Ev
	jmp	LBB16_81
LBB16_80:
Ltmp416:
	.loc	9 571 0                 ## /Applications/Xcode.app/Contents/Developer/Toolchains/XcodeDefault.xctoolchain/usr/bin/../include/c++/v1/__split_buffer:571:0
	movl	%edx, %ecx
	movq	%rax, -2928(%rbp)
	movl	%ecx, -2932(%rbp)
	leaq	-2912(%rbp), %rdi
	.loc	9 571 0                 ## /Applications/Xcode.app/Contents/Developer/Toolchains/XcodeDefault.xctoolchain/usr/bin/../include/c++/v1/__split_buffer:571:0
	callq	__ZNSt3__114__split_bufferIPiRNS_9allocatorIS1_EEED1Ev
	movq	-2928(%rbp), %rax
	movl	-2932(%rbp), %ecx
	movq	%rax, -3808(%rbp)       ## 8-byte Spill
	movl	%ecx, -3812(%rbp)       ## 4-byte Spill
	jmp	LBB16_89
LBB16_81:                               ##   in Loop: Header=BB16_69 Depth=1
	.loc	9 568 0                 ## /Applications/Xcode.app/Contents/Developer/Toolchains/XcodeDefault.xctoolchain/usr/bin/../include/c++/v1/__split_buffer:568:0
	jmp	LBB16_82
LBB16_82:                               ##   in Loop: Header=BB16_69 Depth=1
	movq	-3768(%rbp), %rax       ## 8-byte Reload
	movq	%rax, -2672(%rbp)
	movq	-2672(%rbp), %rcx
	.loc	9 54 0                  ## /Applications/Xcode.app/Contents/Developer/Toolchains/XcodeDefault.xctoolchain/usr/bin/../include/c++/v1/__split_buffer:54:0
Ltmp736:
	addq	$24, %rcx
	movq	%rcx, -2664(%rbp)
	movq	-2664(%rbp), %rcx
	movq	%rcx, -2656(%rbp)
	movq	-2656(%rbp), %rcx
	.loc	4 2013 0                ## /Applications/Xcode.app/Contents/Developer/Toolchains/XcodeDefault.xctoolchain/usr/bin/../include/c++/v1/memory:2013:0
Ltmp737:
	movq	8(%rcx), %rcx
Ltmp738:
	.loc	9 569 42                ## /Applications/Xcode.app/Contents/Developer/Toolchains/XcodeDefault.xctoolchain/usr/bin/../include/c++/v1/__split_buffer:569:42
	movq	16(%rax), %rdx
	movq	%rdx, -2680(%rbp)
	.loc	4 1039 0                ## /Applications/Xcode.app/Contents/Developer/Toolchains/XcodeDefault.xctoolchain/usr/bin/../include/c++/v1/memory:1039:0
Ltmp739:
	movq	-2680(%rbp), %rdx
Ltmp740:
	.loc	9 569 0                 ## /Applications/Xcode.app/Contents/Developer/Toolchains/XcodeDefault.xctoolchain/usr/bin/../include/c++/v1/__split_buffer:569:0
	movq	-2840(%rbp), %rsi
	movq	%rcx, -2768(%rbp)
	movq	%rdx, -2776(%rbp)
	movq	%rsi, -2784(%rbp)
	.loc	4 1449 0                ## /Applications/Xcode.app/Contents/Developer/Toolchains/XcodeDefault.xctoolchain/usr/bin/../include/c++/v1/memory:1449:0
Ltmp741:
	movq	-2768(%rbp), %rcx
	movq	-2776(%rbp), %rdx
	.loc	4 1450 36               ## /Applications/Xcode.app/Contents/Developer/Toolchains/XcodeDefault.xctoolchain/usr/bin/../include/c++/v1/memory:1450:36
	movq	-2784(%rbp), %rsi
	movq	%rsi, -2760(%rbp)
	.loc	7 1549 0                ## /Applications/Xcode.app/Contents/Developer/Toolchains/XcodeDefault.xctoolchain/usr/bin/../include/c++/v1/type_traits:1549:0
Ltmp742:
	movq	-2760(%rbp), %rsi
	movq	%rcx, -2736(%rbp)
	movq	%rdx, -2744(%rbp)
	movq	%rsi, -2752(%rbp)
Ltmp743:
	.loc	4 1568 0                ## /Applications/Xcode.app/Contents/Developer/Toolchains/XcodeDefault.xctoolchain/usr/bin/../include/c++/v1/memory:1568:0
	movq	-2736(%rbp), %rcx
	movq	-2744(%rbp), %rdx
	.loc	4 1568 33               ## /Applications/Xcode.app/Contents/Developer/Toolchains/XcodeDefault.xctoolchain/usr/bin/../include/c++/v1/memory:1568:33
	movq	-2752(%rbp), %rsi
	movq	%rsi, -2720(%rbp)
	.loc	7 1549 0                ## /Applications/Xcode.app/Contents/Developer/Toolchains/XcodeDefault.xctoolchain/usr/bin/../include/c++/v1/type_traits:1549:0
Ltmp744:
	movq	-2720(%rbp), %rsi
	movq	%rcx, -2696(%rbp)
	movq	%rdx, -2704(%rbp)
	movq	%rsi, -2712(%rbp)
Ltmp745:
	.loc	4 1641 0                ## /Applications/Xcode.app/Contents/Developer/Toolchains/XcodeDefault.xctoolchain/usr/bin/../include/c++/v1/memory:1641:0
	movq	-2704(%rbp), %rcx
	cmpq	$0, %rcx
	movq	%rcx, -3824(%rbp)       ## 8-byte Spill
	je	LBB16_84
## BB#83:                               ##   in Loop: Header=BB16_69 Depth=1
	movq	-3824(%rbp), %rax       ## 8-byte Reload
	.loc	4 1641 35               ## /Applications/Xcode.app/Contents/Developer/Toolchains/XcodeDefault.xctoolchain/usr/bin/../include/c++/v1/memory:1641:35
	movq	-2712(%rbp), %rcx
	movq	%rcx, -2688(%rbp)
	.loc	7 1549 0                ## /Applications/Xcode.app/Contents/Developer/Toolchains/XcodeDefault.xctoolchain/usr/bin/../include/c++/v1/type_traits:1549:0
Ltmp746:
	movq	-2688(%rbp), %rcx
Ltmp747:
	.loc	4 1641 35               ## /Applications/Xcode.app/Contents/Developer/Toolchains/XcodeDefault.xctoolchain/usr/bin/../include/c++/v1/memory:1641:35
	movq	(%rcx), %rcx
	movq	-3824(%rbp), %rdx       ## 8-byte Reload
	movq	%rcx, (%rdx)
	movq	%rax, -3832(%rbp)       ## 8-byte Spill
Ltmp748:
LBB16_84:                               ## %_ZNSt3__114__split_bufferIPiRNS_9allocatorIS1_EEE9push_backERKS1_.exit
                                        ##   in Loop: Header=BB16_69 Depth=1
	.loc	9 570 0                 ## /Applications/Xcode.app/Contents/Developer/Toolchains/XcodeDefault.xctoolchain/usr/bin/../include/c++/v1/__split_buffer:570:0
	movq	-3768(%rbp), %rax       ## 8-byte Reload
	movq	16(%rax), %rcx
	addq	$8, %rcx
	movq	%rcx, 16(%rax)
Ltmp749:
## BB#85:                               ##   in Loop: Header=BB16_69 Depth=1
	.loc	3 2517 0                ## /Applications/Xcode.app/Contents/Developer/Toolchains/XcodeDefault.xctoolchain/usr/bin/../include/c++/v1/deque:2517:0
	movq	-3560(%rbp), %rax       ## 8-byte Reload
	movq	%rax, -3000(%rbp)
	movq	-3000(%rbp), %rax
	.loc	9 108 0                 ## /Applications/Xcode.app/Contents/Developer/Toolchains/XcodeDefault.xctoolchain/usr/bin/../include/c++/v1/__split_buffer:108:0
Ltmp750:
	movq	8(%rax), %rcx
	addq	$8, %rcx
	movq	%rax, -2968(%rbp)
	movq	%rcx, -2976(%rbp)
	movq	-2968(%rbp), %rax
	.loc	9 130 0                 ## /Applications/Xcode.app/Contents/Developer/Toolchains/XcodeDefault.xctoolchain/usr/bin/../include/c++/v1/__split_buffer:130:0
Ltmp751:
	movq	-2976(%rbp), %rcx
	movq	%rax, -2952(%rbp)
	movq	%rcx, -2960(%rbp)
	movq	-2952(%rbp), %rax
	.loc	9 301 0                 ## /Applications/Xcode.app/Contents/Developer/Toolchains/XcodeDefault.xctoolchain/usr/bin/../include/c++/v1/__split_buffer:301:0
Ltmp752:
	movq	-2960(%rbp), %rcx
	movq	%rcx, 8(%rax)
Ltmp753:
## BB#86:                               ##   in Loop: Header=BB16_69 Depth=1
	.loc	3 2518 0                ## /Applications/Xcode.app/Contents/Developer/Toolchains/XcodeDefault.xctoolchain/usr/bin/../include/c++/v1/deque:2518:0
	jmp	LBB16_87
Ltmp754:
LBB16_87:                               ##   in Loop: Header=BB16_69 Depth=1
	.loc	3 2514 0                ## /Applications/Xcode.app/Contents/Developer/Toolchains/XcodeDefault.xctoolchain/usr/bin/../include/c++/v1/deque:2514:0
	movq	-3416(%rbp), %rax
	addq	$-1, %rax
	movq	%rax, -3416(%rbp)
	jmp	LBB16_69
LBB16_88:
Ltmp413:
	.loc	3 2528 0                ## /Applications/Xcode.app/Contents/Developer/Toolchains/XcodeDefault.xctoolchain/usr/bin/../include/c++/v1/deque:2528:0
Ltmp755:
	movl	%edx, %ecx
	movq	%rax, -3808(%rbp)       ## 8-byte Spill
	movl	%ecx, -3812(%rbp)       ## 4-byte Spill
LBB16_89:                               ## %.body
	movl	-3812(%rbp), %eax       ## 4-byte Reload
	movq	-3808(%rbp), %rcx       ## 8-byte Reload
	movq	%rcx, -3528(%rbp)
	movl	%eax, -3532(%rbp)
	jmp	LBB16_95
Ltmp756:
LBB16_90:
	.loc	3 2519 0                ## /Applications/Xcode.app/Contents/Developer/Toolchains/XcodeDefault.xctoolchain/usr/bin/../include/c++/v1/deque:2519:0
	movq	-3560(%rbp), %rax       ## 8-byte Reload
	movq	%rax, -3008(%rbp)
	movq	-3008(%rbp), %rax
	.loc	9 78 0                  ## /Applications/Xcode.app/Contents/Developer/Toolchains/XcodeDefault.xctoolchain/usr/bin/../include/c++/v1/__split_buffer:78:0
Ltmp757:
	movq	16(%rax), %rax
Ltmp758:
	.loc	3 2519 0                ## /Applications/Xcode.app/Contents/Developer/Toolchains/XcodeDefault.xctoolchain/usr/bin/../include/c++/v1/deque:2519:0
	movq	%rax, -3552(%rbp)
LBB16_91:                               ## =>This Inner Loop Header: Depth=1
	movq	-3552(%rbp), %rax
	.loc	3 2520 0                ## /Applications/Xcode.app/Contents/Developer/Toolchains/XcodeDefault.xctoolchain/usr/bin/../include/c++/v1/deque:2520:0
	movq	-3560(%rbp), %rcx       ## 8-byte Reload
	movq	%rcx, -3016(%rbp)
	movq	-3016(%rbp), %rcx
	cmpq	8(%rcx), %rax
	je	LBB16_94
## BB#92:                               ##   in Loop: Header=BB16_91 Depth=1
	.loc	3 2521 0                ## /Applications/Xcode.app/Contents/Developer/Toolchains/XcodeDefault.xctoolchain/usr/bin/../include/c++/v1/deque:2521:0
	movq	-3552(%rbp), %rax
	addq	$-8, %rax
	movq	%rax, -3552(%rbp)
Ltmp409:
	leaq	-3496(%rbp), %rdi
	movq	%rax, %rsi
	callq	__ZNSt3__114__split_bufferIPiRNS_9allocatorIS1_EEE10push_frontERKS1_
Ltmp410:
	jmp	LBB16_93
LBB16_93:                               ##   in Loop: Header=BB16_91 Depth=1
	jmp	LBB16_91
Ltmp759:
LBB16_94:
	leaq	-3496(%rbp), %rax
	leaq	-3328(%rbp), %rcx
	leaq	-3232(%rbp), %rdx
	leaq	-3184(%rbp), %rsi
	leaq	-3136(%rbp), %rdi
	.loc	3 2522 0                ## /Applications/Xcode.app/Contents/Developer/Toolchains/XcodeDefault.xctoolchain/usr/bin/../include/c++/v1/deque:2522:0
	movq	-3560(%rbp), %r8        ## 8-byte Reload
	movq	%r8, -3120(%rbp)
	movq	%rax, -3128(%rbp)
Ltmp760:
	##DEBUG_VALUE: __t <- RDI
	.loc	7 3204 13               ## /Applications/Xcode.app/Contents/Developer/Toolchains/XcodeDefault.xctoolchain/usr/bin/../include/c++/v1/type_traits:3204:13
	movq	-3120(%rbp), %r8
	movq	%r8, -3112(%rbp)
	.loc	7 1541 0                ## /Applications/Xcode.app/Contents/Developer/Toolchains/XcodeDefault.xctoolchain/usr/bin/../include/c++/v1/type_traits:1541:0
Ltmp761:
	movq	-3112(%rbp), %r8
Ltmp762:
	.loc	7 3204 13               ## /Applications/Xcode.app/Contents/Developer/Toolchains/XcodeDefault.xctoolchain/usr/bin/../include/c++/v1/type_traits:3204:13
	movq	(%r8), %r8
	movq	%r8, -3136(%rbp)
	.loc	7 3205 11               ## /Applications/Xcode.app/Contents/Developer/Toolchains/XcodeDefault.xctoolchain/usr/bin/../include/c++/v1/type_traits:3205:11
	movq	-3128(%rbp), %r8
	movq	%r8, -3096(%rbp)
	.loc	7 1541 0                ## /Applications/Xcode.app/Contents/Developer/Toolchains/XcodeDefault.xctoolchain/usr/bin/../include/c++/v1/type_traits:1541:0
Ltmp763:
	movq	-3096(%rbp), %r8
Ltmp764:
	.loc	7 3205 11               ## /Applications/Xcode.app/Contents/Developer/Toolchains/XcodeDefault.xctoolchain/usr/bin/../include/c++/v1/type_traits:3205:11
	movq	(%r8), %r8
	movq	-3120(%rbp), %r9
	movq	%r8, (%r9)
	movq	%rdi, -3104(%rbp)
	.loc	7 1541 0                ## /Applications/Xcode.app/Contents/Developer/Toolchains/XcodeDefault.xctoolchain/usr/bin/../include/c++/v1/type_traits:1541:0
Ltmp765:
	movq	-3104(%rbp), %rdi
Ltmp766:
	.loc	7 3206 11               ## /Applications/Xcode.app/Contents/Developer/Toolchains/XcodeDefault.xctoolchain/usr/bin/../include/c++/v1/type_traits:3206:11
	movq	(%rdi), %rdi
	movq	-3128(%rbp), %r8
	movq	%rdi, (%r8)
Ltmp767:
	.loc	3 2523 0                ## /Applications/Xcode.app/Contents/Developer/Toolchains/XcodeDefault.xctoolchain/usr/bin/../include/c++/v1/deque:2523:0
	movq	-3560(%rbp), %rdi       ## 8-byte Reload
	addq	$8, %rdi
	movq	%rax, %r8
	addq	$8, %r8
	movq	%rdi, -3168(%rbp)
	movq	%r8, -3176(%rbp)
Ltmp768:
	##DEBUG_VALUE: __t <- RSI
	.loc	7 3204 13               ## /Applications/Xcode.app/Contents/Developer/Toolchains/XcodeDefault.xctoolchain/usr/bin/../include/c++/v1/type_traits:3204:13
	movq	-3168(%rbp), %rdi
	movq	%rdi, -3160(%rbp)
	.loc	7 1541 0                ## /Applications/Xcode.app/Contents/Developer/Toolchains/XcodeDefault.xctoolchain/usr/bin/../include/c++/v1/type_traits:1541:0
Ltmp769:
	movq	-3160(%rbp), %rdi
Ltmp770:
	.loc	7 3204 13               ## /Applications/Xcode.app/Contents/Developer/Toolchains/XcodeDefault.xctoolchain/usr/bin/../include/c++/v1/type_traits:3204:13
	movq	(%rdi), %rdi
	movq	%rdi, -3184(%rbp)
	.loc	7 3205 11               ## /Applications/Xcode.app/Contents/Developer/Toolchains/XcodeDefault.xctoolchain/usr/bin/../include/c++/v1/type_traits:3205:11
	movq	-3176(%rbp), %rdi
	movq	%rdi, -3144(%rbp)
	.loc	7 1541 0                ## /Applications/Xcode.app/Contents/Developer/Toolchains/XcodeDefault.xctoolchain/usr/bin/../include/c++/v1/type_traits:1541:0
Ltmp771:
	movq	-3144(%rbp), %rdi
Ltmp772:
	.loc	7 3205 11               ## /Applications/Xcode.app/Contents/Developer/Toolchains/XcodeDefault.xctoolchain/usr/bin/../include/c++/v1/type_traits:3205:11
	movq	(%rdi), %rdi
	movq	-3168(%rbp), %r8
	movq	%rdi, (%r8)
	movq	%rsi, -3152(%rbp)
	.loc	7 1541 0                ## /Applications/Xcode.app/Contents/Developer/Toolchains/XcodeDefault.xctoolchain/usr/bin/../include/c++/v1/type_traits:1541:0
Ltmp773:
	movq	-3152(%rbp), %rsi
Ltmp774:
	.loc	7 3206 11               ## /Applications/Xcode.app/Contents/Developer/Toolchains/XcodeDefault.xctoolchain/usr/bin/../include/c++/v1/type_traits:3206:11
	movq	(%rsi), %rsi
	movq	-3176(%rbp), %rdi
	movq	%rsi, (%rdi)
Ltmp775:
	.loc	3 2524 0                ## /Applications/Xcode.app/Contents/Developer/Toolchains/XcodeDefault.xctoolchain/usr/bin/../include/c++/v1/deque:2524:0
	movq	-3560(%rbp), %rsi       ## 8-byte Reload
	addq	$16, %rsi
	movq	%rax, %rdi
	addq	$16, %rdi
	movq	%rsi, -3216(%rbp)
	movq	%rdi, -3224(%rbp)
Ltmp776:
	##DEBUG_VALUE: __t <- RDX
	.loc	7 3204 13               ## /Applications/Xcode.app/Contents/Developer/Toolchains/XcodeDefault.xctoolchain/usr/bin/../include/c++/v1/type_traits:3204:13
	movq	-3216(%rbp), %rsi
	movq	%rsi, -3208(%rbp)
	.loc	7 1541 0                ## /Applications/Xcode.app/Contents/Developer/Toolchains/XcodeDefault.xctoolchain/usr/bin/../include/c++/v1/type_traits:1541:0
Ltmp777:
	movq	-3208(%rbp), %rsi
Ltmp778:
	.loc	7 3204 13               ## /Applications/Xcode.app/Contents/Developer/Toolchains/XcodeDefault.xctoolchain/usr/bin/../include/c++/v1/type_traits:3204:13
	movq	(%rsi), %rsi
	movq	%rsi, -3232(%rbp)
	.loc	7 3205 11               ## /Applications/Xcode.app/Contents/Developer/Toolchains/XcodeDefault.xctoolchain/usr/bin/../include/c++/v1/type_traits:3205:11
	movq	-3224(%rbp), %rsi
	movq	%rsi, -3192(%rbp)
	.loc	7 1541 0                ## /Applications/Xcode.app/Contents/Developer/Toolchains/XcodeDefault.xctoolchain/usr/bin/../include/c++/v1/type_traits:1541:0
Ltmp779:
	movq	-3192(%rbp), %rsi
Ltmp780:
	.loc	7 3205 11               ## /Applications/Xcode.app/Contents/Developer/Toolchains/XcodeDefault.xctoolchain/usr/bin/../include/c++/v1/type_traits:3205:11
	movq	(%rsi), %rsi
	movq	-3216(%rbp), %rdi
	movq	%rsi, (%rdi)
	movq	%rdx, -3200(%rbp)
	.loc	7 1541 0                ## /Applications/Xcode.app/Contents/Developer/Toolchains/XcodeDefault.xctoolchain/usr/bin/../include/c++/v1/type_traits:1541:0
Ltmp781:
	movq	-3200(%rbp), %rdx
Ltmp782:
	.loc	7 3206 11               ## /Applications/Xcode.app/Contents/Developer/Toolchains/XcodeDefault.xctoolchain/usr/bin/../include/c++/v1/type_traits:3206:11
	movq	(%rdx), %rdx
	movq	-3224(%rbp), %rsi
	movq	%rdx, (%rsi)
Ltmp783:
	.loc	3 2525 0                ## /Applications/Xcode.app/Contents/Developer/Toolchains/XcodeDefault.xctoolchain/usr/bin/../include/c++/v1/deque:2525:0
	movq	-3560(%rbp), %rdx       ## 8-byte Reload
	movq	%rdx, -3256(%rbp)
	movq	-3256(%rbp), %rdx
	.loc	9 56 0                  ## /Applications/Xcode.app/Contents/Developer/Toolchains/XcodeDefault.xctoolchain/usr/bin/../include/c++/v1/__split_buffer:56:0
Ltmp784:
	addq	$24, %rdx
	movq	%rdx, -3248(%rbp)
	movq	-3248(%rbp), %rdx
	movq	%rdx, -3240(%rbp)
	movq	-3240(%rbp), %rdx
	movq	%rax, -3280(%rbp)
	movq	-3280(%rbp), %rsi
	.loc	9 56 0                  ## /Applications/Xcode.app/Contents/Developer/Toolchains/XcodeDefault.xctoolchain/usr/bin/../include/c++/v1/__split_buffer:56:0
	addq	$24, %rsi
	movq	%rsi, -3272(%rbp)
	movq	-3272(%rbp), %rsi
	movq	%rsi, -3264(%rbp)
	movq	-3264(%rbp), %rsi
	movq	%rdx, -3312(%rbp)
	movq	%rsi, -3320(%rbp)
Ltmp785:
	##DEBUG_VALUE: __t <- RCX
	.loc	7 3204 13               ## /Applications/Xcode.app/Contents/Developer/Toolchains/XcodeDefault.xctoolchain/usr/bin/../include/c++/v1/type_traits:3204:13
	movq	-3312(%rbp), %rdx
	movq	%rdx, -3304(%rbp)
	.loc	7 1541 0                ## /Applications/Xcode.app/Contents/Developer/Toolchains/XcodeDefault.xctoolchain/usr/bin/../include/c++/v1/type_traits:1541:0
Ltmp786:
	movq	-3304(%rbp), %rdx
Ltmp787:
	.loc	7 3204 13               ## /Applications/Xcode.app/Contents/Developer/Toolchains/XcodeDefault.xctoolchain/usr/bin/../include/c++/v1/type_traits:3204:13
	movq	(%rdx), %rdx
	movq	%rdx, -3328(%rbp)
	.loc	7 3205 11               ## /Applications/Xcode.app/Contents/Developer/Toolchains/XcodeDefault.xctoolchain/usr/bin/../include/c++/v1/type_traits:3205:11
	movq	-3320(%rbp), %rdx
	movq	%rdx, -3288(%rbp)
	.loc	7 1541 0                ## /Applications/Xcode.app/Contents/Developer/Toolchains/XcodeDefault.xctoolchain/usr/bin/../include/c++/v1/type_traits:1541:0
Ltmp788:
	movq	-3288(%rbp), %rdx
Ltmp789:
	.loc	7 3205 11               ## /Applications/Xcode.app/Contents/Developer/Toolchains/XcodeDefault.xctoolchain/usr/bin/../include/c++/v1/type_traits:3205:11
	movq	(%rdx), %rdx
	movq	-3312(%rbp), %rsi
	movq	%rdx, (%rsi)
	movq	%rcx, -3296(%rbp)
	.loc	7 1541 0                ## /Applications/Xcode.app/Contents/Developer/Toolchains/XcodeDefault.xctoolchain/usr/bin/../include/c++/v1/type_traits:1541:0
Ltmp790:
	movq	-3296(%rbp), %rcx
Ltmp791:
	.loc	7 3206 11               ## /Applications/Xcode.app/Contents/Developer/Toolchains/XcodeDefault.xctoolchain/usr/bin/../include/c++/v1/type_traits:3206:11
	movq	(%rcx), %rcx
	movq	-3320(%rbp), %rdx
	movq	%rcx, (%rdx)
Ltmp792:
	.loc	3 2526 0                ## /Applications/Xcode.app/Contents/Developer/Toolchains/XcodeDefault.xctoolchain/usr/bin/../include/c++/v1/deque:2526:0
	movq	-3456(%rbp), %rcx
	movq	-3560(%rbp), %rdx       ## 8-byte Reload
	movq	32(%rdx), %rsi
	subq	%rcx, %rsi
	movq	%rsi, 32(%rdx)
	.loc	3 2527 0                ## /Applications/Xcode.app/Contents/Developer/Toolchains/XcodeDefault.xctoolchain/usr/bin/../include/c++/v1/deque:2527:0
	movq	%rax, %rdi
	callq	__ZNSt3__114__split_bufferIPiRNS_9allocatorIS1_EEED1Ev
	jmp	LBB16_96
Ltmp793:
LBB16_95:
	leaq	-3496(%rbp), %rdi
	.loc	3 2528 0                ## /Applications/Xcode.app/Contents/Developer/Toolchains/XcodeDefault.xctoolchain/usr/bin/../include/c++/v1/deque:2528:0
	callq	__ZNSt3__114__split_bufferIPiRNS_9allocatorIS1_EEED1Ev
	jmp	LBB16_98
Ltmp794:
LBB16_96:
	jmp	LBB16_97
LBB16_97:
	.loc	3 2528 0                ## /Applications/Xcode.app/Contents/Developer/Toolchains/XcodeDefault.xctoolchain/usr/bin/../include/c++/v1/deque:2528:0
	addq	$3840, %rsp             ## imm = 0xF00
	popq	%rbp
	retq
LBB16_98:
	.loc	3 2528 0                ## /Applications/Xcode.app/Contents/Developer/Toolchains/XcodeDefault.xctoolchain/usr/bin/../include/c++/v1/deque:2528:0
Ltmp795:
	movq	-3528(%rbp), %rax
	movq	%rax, -3624(%rbp)       ## 8-byte Spill
	jmp	LBB16_101
LBB16_99:
Ltmp427:
	.loc	3 2528 0                ## /Applications/Xcode.app/Contents/Developer/Toolchains/XcodeDefault.xctoolchain/usr/bin/../include/c++/v1/deque:2528:0
Ltmp796:
	movl	%edx, %ecx
	movq	%rax, %rdi
	movl	%ecx, -3836(%rbp)       ## 4-byte Spill
	callq	___clang_call_terminate
Ltmp797:
LBB16_100:
LBB16_101:                              ## %unwind_resume
	movq	-3624(%rbp), %rax       ## 8-byte Reload
	movq	%rax, %rdi
	callq	__Unwind_Resume
Lfunc_end16:
	.cfi_endproc
Leh_func_end16:
	.section	__TEXT,__gcc_except_tab
	.align	2
GCC_except_table16:
Lexception16:
	.byte	255                     ## @LPStart Encoding = omit
	.byte	155                     ## @TType Encoding = indirect pcrel sdata4
	.asciz	"\277\201"              ## @TType base offset
	.byte	3                       ## Call site Encoding = udata4
	.ascii	"\266\001"              ## Call site table length
Lset10 = Leh_func_begin16-Leh_func_begin16 ## >> Call Site 1 <<
	.long	Lset10
Lset11 = Ltmp431-Leh_func_begin16       ##   Call between Leh_func_begin16 and Ltmp431
	.long	Lset11
	.long	0                       ##     has no landing pad
	.byte	0                       ##   On action: cleanup
Lset12 = Ltmp431-Leh_func_begin16       ## >> Call Site 2 <<
	.long	Lset12
Lset13 = Ltmp432-Ltmp431                ##   Call between Ltmp431 and Ltmp432
	.long	Lset13
Lset14 = Ltmp433-Leh_func_begin16       ##     jumps to Ltmp433
	.long	Lset14
	.byte	0                       ##   On action: cleanup
Lset15 = Ltmp432-Leh_func_begin16       ## >> Call Site 3 <<
	.long	Lset15
Lset16 = Ltmp428-Ltmp432                ##   Call between Ltmp432 and Ltmp428
	.long	Lset16
	.long	0                       ##     has no landing pad
	.byte	0                       ##   On action: cleanup
Lset17 = Ltmp428-Leh_func_begin16       ## >> Call Site 4 <<
	.long	Lset17
Lset18 = Ltmp429-Ltmp428                ##   Call between Ltmp428 and Ltmp429
	.long	Lset18
Lset19 = Ltmp430-Leh_func_begin16       ##     jumps to Ltmp430
	.long	Lset19
	.byte	0                       ##   On action: cleanup
Lset20 = Ltmp429-Leh_func_begin16       ## >> Call Site 5 <<
	.long	Lset20
Lset21 = Ltmp417-Ltmp429                ##   Call between Ltmp429 and Ltmp417
	.long	Lset21
	.long	0                       ##     has no landing pad
	.byte	0                       ##   On action: cleanup
Lset22 = Ltmp417-Leh_func_begin16       ## >> Call Site 6 <<
	.long	Lset22
Lset23 = Ltmp420-Ltmp417                ##   Call between Ltmp417 and Ltmp420
	.long	Lset23
Lset24 = Ltmp421-Leh_func_begin16       ##     jumps to Ltmp421
	.long	Lset24
	.byte	1                       ##   On action: 1
Lset25 = Ltmp420-Leh_func_begin16       ## >> Call Site 7 <<
	.long	Lset25
Lset26 = Ltmp422-Ltmp420                ##   Call between Ltmp420 and Ltmp422
	.long	Lset26
	.long	0                       ##     has no landing pad
	.byte	0                       ##   On action: cleanup
Lset27 = Ltmp422-Leh_func_begin16       ## >> Call Site 8 <<
	.long	Lset27
Lset28 = Ltmp423-Ltmp422                ##   Call between Ltmp422 and Ltmp423
	.long	Lset28
Lset29 = Ltmp424-Leh_func_begin16       ##     jumps to Ltmp424
	.long	Lset29
	.byte	0                       ##   On action: cleanup
Lset30 = Ltmp425-Leh_func_begin16       ## >> Call Site 9 <<
	.long	Lset30
Lset31 = Ltmp426-Ltmp425                ##   Call between Ltmp425 and Ltmp426
	.long	Lset31
Lset32 = Ltmp427-Leh_func_begin16       ##     jumps to Ltmp427
	.long	Lset32
	.byte	1                       ##   On action: 1
Lset33 = Ltmp426-Leh_func_begin16       ## >> Call Site 10 <<
	.long	Lset33
Lset34 = Ltmp411-Ltmp426                ##   Call between Ltmp426 and Ltmp411
	.long	Lset34
	.long	0                       ##     has no landing pad
	.byte	0                       ##   On action: cleanup
Lset35 = Ltmp411-Leh_func_begin16       ## >> Call Site 11 <<
	.long	Lset35
Lset36 = Ltmp412-Ltmp411                ##   Call between Ltmp411 and Ltmp412
	.long	Lset36
Lset37 = Ltmp413-Leh_func_begin16       ##     jumps to Ltmp413
	.long	Lset37
	.byte	0                       ##   On action: cleanup
Lset38 = Ltmp414-Leh_func_begin16       ## >> Call Site 12 <<
	.long	Lset38
Lset39 = Ltmp415-Ltmp414                ##   Call between Ltmp414 and Ltmp415
	.long	Lset39
Lset40 = Ltmp416-Leh_func_begin16       ##     jumps to Ltmp416
	.long	Lset40
	.byte	0                       ##   On action: cleanup
Lset41 = Ltmp409-Leh_func_begin16       ## >> Call Site 13 <<
	.long	Lset41
Lset42 = Ltmp410-Ltmp409                ##   Call between Ltmp409 and Ltmp410
	.long	Lset42
Lset43 = Ltmp413-Leh_func_begin16       ##     jumps to Ltmp413
	.long	Lset43
	.byte	0                       ##   On action: cleanup
Lset44 = Ltmp410-Leh_func_begin16       ## >> Call Site 14 <<
	.long	Lset44
Lset45 = Leh_func_end16-Ltmp410         ##   Call between Ltmp410 and Leh_func_end16
	.long	Lset45
	.long	0                       ##     has no landing pad
	.byte	0                       ##   On action: cleanup
